ARM GAS  /tmp/cckjiyXc.s 			page 1


   1              		.cpu cortex-m4
   2              		.eabi_attribute 27, 1
   3              		.eabi_attribute 28, 1
   4              		.eabi_attribute 20, 1
   5              		.eabi_attribute 21, 1
   6              		.eabi_attribute 23, 3
   7              		.eabi_attribute 24, 1
   8              		.eabi_attribute 25, 1
   9              		.eabi_attribute 26, 1
  10              		.eabi_attribute 30, 2
  11              		.eabi_attribute 34, 1
  12              		.eabi_attribute 18, 4
  13              		.file	"behaviors.c"
  14              		.text
  15              	.Ltext0:
  16              		.cfi_sections	.debug_frame
  17              		.section	.text.behaviors_thd,"ax",%progbits
  18              		.align	1
  19              		.p2align 4,,15
  20              		.syntax unified
  21              		.thumb
  22              		.thumb_func
  23              		.fpu fpv4-sp-d16
  24              		.type	behaviors_thd, %function
  25              	behaviors_thd:
  26              	.LFB261:
  27              		.file 1 "../e-puck2_main-processor/src/behaviors.c"
  28              		.loc 1 35 0
  29              		.cfi_startproc
  30              		@ args = 0, pretend = 0, frame = 24
  31              		@ frame_needed = 0, uses_anonymous_args = 0
  32              	.LVL0:
  33 0000 2DE9F04F 		push	{r4, r5, r6, r7, r8, r9, r10, fp, lr}
  34              		.cfi_def_cfa_offset 36
  35              		.cfi_offset 4, -36
  36              		.cfi_offset 5, -32
  37              		.cfi_offset 6, -28
  38              		.cfi_offset 7, -24
  39              		.cfi_offset 8, -20
  40              		.cfi_offset 9, -16
  41              		.cfi_offset 10, -12
  42              		.cfi_offset 11, -8
  43              		.cfi_offset 14, -4
  44              	.LBB58:
  45              	.LBB59:
  46              		.file 2 "../e-puck2_main-processor/ChibiOS//os/rt/include/chregistry.h"
  47              		.loc 2 135 0
  48 0004 534C     		ldr	r4, .L23
  49 0006 544A     		ldr	r2, .L23+4
  50 0008 A369     		ldr	r3, [r4, #24]
  51              	.LBE59:
  52              	.LBE58:
  53              		.loc 1 35 0
  54 000a DFF86091 		ldr	r9, .L23+24
  55              	.LBB61:
  56              	.LBB60:
  57              		.loc 2 135 0
ARM GAS  /tmp/cckjiyXc.s 			page 2


  58 000e 9A61     		str	r2, [r3, #24]
  59              	.LBE60:
  60              	.LBE61:
  61              	.LBB62:
  62              	.LBB63:
  63              		.file 3 "../e-puck2_main-processor/ChibiOS//os/rt/include/chthreads.h"
  64              		.loc 3 233 0
  65 0010 A369     		ldr	r3, [r4, #24]
  66              	.LBE63:
  67              	.LBE62:
  68              		.loc 1 35 0
  69 0012 D9F80020 		ldr	r2, [r9]
  70              		.loc 1 45 0
  71 0016 93F82130 		ldrb	r3, [r3, #33]	@ zero_extendqisi2
  72              		.loc 1 35 0
  73 001a 87B0     		sub	sp, sp, #28
  74              		.cfi_def_cfa_offset 64
  75              		.loc 1 35 0
  76 001c 0592     		str	r2, [sp, #20]
  77              	.LVL1:
  78              		.loc 1 45 0
  79 001e 5A07     		lsls	r2, r3, #29
  80 0020 00F18180 		bmi	.L1
  81 0024 DFF84881 		ldr	r8, .L23+28
  82              		.loc 1 98 0
  83 0028 DFF848B1 		ldr	fp, .L23+32
  84 002c 09E0     		b	.L12
  85              	.LVL2:
  86              	.L4:
  87              		.loc 1 112 0
  88 002e 06F10A01 		add	r1, r6, #10
  89 0032 3046     		mov	r0, r6
  90 0034 FFF7FEFF 		bl	chThdSleepUntilWindowed
  91              	.LVL3:
  92              	.LBB65:
  93              	.LBB64:
  94              		.loc 3 233 0
  95 0038 A369     		ldr	r3, [r4, #24]
  96              	.LBE64:
  97              	.LBE65:
  98              		.loc 1 45 0
  99 003a 93F82130 		ldrb	r3, [r3, #33]	@ zero_extendqisi2
 100 003e 5B07     		lsls	r3, r3, #29
 101 0040 71D4     		bmi	.L1
 102              	.L12:
 103              	.LVL4:
 104              	.LBB66:
 105              	.LBB67:
 106              	.LBB68:
 107              	.LBB69:
 108              	.LBB70:
 109              	.LBB71:
 110              	.LBB72:
 111              		.file 4 "../e-puck2_main-processor/ChibiOS//os/ext/CMSIS/include/core_cmFunc.h"
 112              		.loc 4 546 0
 113 0042 2023     		movs	r3, #32
 114              		.syntax unified
ARM GAS  /tmp/cckjiyXc.s 			page 3


 115              	@ 546 "../e-puck2_main-processor/ChibiOS//os/ext/CMSIS/include/core_cmFunc.h" 1
 116 0044 83F31188 		MSR basepri, r3
 117              	@ 0 "" 2
 118              	.LVL5:
 119              		.thumb
 120              		.syntax unified
 121              	.LBE72:
 122              	.LBE71:
 123              	.LBE70:
 124              		.file 5 "../e-puck2_main-processor/ChibiOS//os/rt/include/chsys.h"
 125              		.loc 5 349 0
 126 0048 FFF7FEFF 		bl	_stats_start_measure_crit_thd
 127              	.LVL6:
 128              		.loc 5 350 0
 129 004c FFF7FEFF 		bl	_dbg_check_lock
 130              	.LVL7:
 131              	.LBE69:
 132              	.LBE68:
 133              	.LBB73:
 134              	.LBB74:
 135              		.file 6 "../e-puck2_main-processor/ChibiOS//os/rt/include/chvt.h"
 136              		.loc 6 231 0
 137 0050 A66A     		ldr	r6, [r4, #40]
 138              	.LBE74:
 139              	.LBE73:
 140              	.LBB75:
 141              	.LBB76:
 142              		.loc 5 360 0
 143 0052 FFF7FEFF 		bl	_dbg_check_unlock
 144              	.LVL8:
 145              		.loc 5 361 0
 146 0056 FFF7FEFF 		bl	_stats_stop_measure_crit_thd
 147              	.LVL9:
 148              		.loc 5 367 0
 149 005a 2368     		ldr	r3, [r4]
 150 005c A342     		cmp	r3, r4
 151 005e 07D0     		beq	.L3
 152 0060 A269     		ldr	r2, [r4, #24]
 153 0062 9B68     		ldr	r3, [r3, #8]
 154 0064 9268     		ldr	r2, [r2, #8]
 155 0066 9A42     		cmp	r2, r3
 156 0068 02D2     		bcs	.L3
 157 006a 3C48     		ldr	r0, .L23+8
 158 006c FFF7FEFF 		bl	chSysHalt
 159              	.LVL10:
 160              	.L3:
 161              	.LBB77:
 162              	.LBB78:
 163              	.LBB79:
 164              		.loc 4 546 0
 165 0070 0023     		movs	r3, #0
 166              		.syntax unified
 167              	@ 546 "../e-puck2_main-processor/ChibiOS//os/ext/CMSIS/include/core_cmFunc.h" 1
 168 0072 83F31188 		MSR basepri, r3
 169              	@ 0 "" 2
 170              	.LVL11:
 171              		.thumb
ARM GAS  /tmp/cckjiyXc.s 			page 4


 172              		.syntax unified
 173              	.LBE79:
 174              	.LBE78:
 175              	.LBE77:
 176              	.LBE76:
 177              	.LBE75:
 178              	.LBE67:
 179              	.LBE66:
 180              		.loc 1 47 0
 181 0076 98F80020 		ldrb	r2, [r8]	@ zero_extendqisi2
 182 007a 002A     		cmp	r2, #0
 183 007c D7D0     		beq	.L4
 184 007e 9A46     		mov	r10, r3
 185              		.loc 1 89 0
 186 0080 1F46     		mov	r7, r3
 187 0082 01AD     		add	r5, sp, #4
 188              	.L7:
 189              	.LVL12:
 190              		.loc 1 87 0
 191 0084 5046     		mov	r0, r10
 192 0086 FFF7FEFF 		bl	get_calibrated_prox
 193              	.LVL13:
 194 008a 00B2     		sxth	r0, r0
 195              		.loc 1 88 0
 196 008c 0428     		cmp	r0, #4
 197              		.loc 1 87 0
 198 008e CCBF     		ite	gt
 199 0090 25F81A00 		strhgt	r0, [r5, r10, lsl #1]	@ movhi
 200              		.loc 1 89 0
 201 0094 25F81A70 		strhle	r7, [r5, r10, lsl #1]	@ movhi
 202              	.LVL14:
 203 0098 0AF1010A 		add	r10, r10, #1
 204              	.LVL15:
 205              		.loc 1 86 0
 206 009c BAF1080F 		cmp	r10, #8
 207 00a0 F0D1     		bne	.L7
 208              		.loc 1 94 0
 209 00a2 BDF90650 		ldrsh	r5, [sp, #6]
 210 00a6 BDF90430 		ldrsh	r3, [sp, #4]
 211              		.loc 1 95 0
 212 00aa BDF90810 		ldrsh	r1, [sp, #8]
 213              		.loc 1 94 0
 214 00ae BDF90A00 		ldrsh	r0, [sp, #10]
 215              		.loc 1 95 0
 216 00b2 BDF90E70 		ldrsh	r7, [sp, #14]
 217              		.loc 1 94 0
 218 00b6 6D10     		asrs	r5, r5, #1
 219              		.loc 1 95 0
 220 00b8 05EBA302 		add	r2, r5, r3, asr #2
 221 00bc 0A44     		add	r2, r2, r1
 222              		.loc 1 94 0
 223 00be 5B42     		negs	r3, r3
 224 00c0 BDF90C10 		ldrsh	r1, [sp, #12]
 225 00c4 5B1B     		subs	r3, r3, r5
 226              		.loc 1 95 0
 227 00c6 02EB6002 		add	r2, r2, r0, asr #1
 228              		.loc 1 94 0
ARM GAS  /tmp/cckjiyXc.s 			page 5


 229 00ca A0EBA000 		sub	r0, r0, r0, asr #2
 230 00ce 0344     		add	r3, r3, r0
 231              		.loc 1 95 0
 232 00d0 A2EB6102 		sub	r2, r2, r1, asr #1
 233              		.loc 1 94 0
 234 00d4 BDF91050 		ldrsh	r5, [sp, #16]
 235 00d8 A1EBA101 		sub	r1, r1, r1, asr #2
 236 00dc 0B44     		add	r3, r3, r1
 237              		.loc 1 98 0
 238 00de DBF80010 		ldr	r1, [fp]
 239              		.loc 1 95 0
 240 00e2 D21B     		subs	r2, r2, r7
 241              		.loc 1 94 0
 242 00e4 6810     		asrs	r0, r5, #1
 243 00e6 BDF91270 		ldrsh	r7, [sp, #18]
 244              		.loc 1 95 0
 245 00ea 121A     		subs	r2, r2, r0
 246              		.loc 1 94 0
 247 00ec 1B1A     		subs	r3, r3, r0
 248              		.loc 1 98 0
 249 00ee 0029     		cmp	r1, #0
 250              		.loc 1 95 0
 251 00f0 A2EBA702 		sub	r2, r2, r7, asr #2
 252              		.loc 1 94 0
 253 00f4 A3EB0703 		sub	r3, r3, r7
 254              	.LVL16:
 255              		.loc 1 98 0
 256 00f8 23DB     		blt	.L8
 257              		.loc 1 99 0
 258 00fa 981A     		subs	r0, r3, r2
 259 00fc 01FB00F0 		mul	r0, r1, r0
 260 0100 01EBA011 		add	r1, r1, r0, asr #6
 261              	.LVL17:
 262              	.L9:
 263              		.loc 1 103 0
 264 0104 1648     		ldr	r0, .L23+12
 265 0106 0568     		ldr	r5, [r0]
 266 0108 002D     		cmp	r5, #0
 267 010a 14DB     		blt	.L10
 268              		.loc 1 104 0
 269 010c 1344     		add	r3, r3, r2
 270              	.LVL18:
 271 010e 05FB03F3 		mul	r3, r5, r3
 272 0112 05EBA315 		add	r5, r5, r3, asr #6
 273              	.LVL19:
 274              	.L11:
 275              		.loc 1 108 0
 276 0116 1348     		ldr	r0, .L23+16
 277 0118 FFF7FEFF 		bl	motor_set_speed
 278              	.LVL20:
 279              		.loc 1 109 0
 280 011c 2946     		mov	r1, r5
 281 011e 1248     		ldr	r0, .L23+20
 282 0120 FFF7FEFF 		bl	motor_set_speed
 283              	.LVL21:
 284 0124 83E7     		b	.L4
 285              	.LVL22:
ARM GAS  /tmp/cckjiyXc.s 			page 6


 286              	.L1:
 287              		.loc 1 114 0
 288 0126 059A     		ldr	r2, [sp, #20]
 289 0128 D9F80030 		ldr	r3, [r9]
 290 012c 9A42     		cmp	r2, r3
 291 012e 0ED1     		bne	.L22
 292 0130 07B0     		add	sp, sp, #28
 293              		.cfi_remember_state
 294              		.cfi_def_cfa_offset 36
 295              		@ sp needed
 296 0132 BDE8F08F 		pop	{r4, r5, r6, r7, r8, r9, r10, fp, pc}
 297              	.LVL23:
 298              	.L10:
 299              		.cfi_restore_state
 300              		.loc 1 106 0
 301 0136 9B1A     		subs	r3, r3, r2
 302              	.LVL24:
 303 0138 05FB03F3 		mul	r3, r5, r3
 304 013c A5EBA315 		sub	r5, r5, r3, asr #6
 305              	.LVL25:
 306 0140 E9E7     		b	.L11
 307              	.LVL26:
 308              	.L8:
 309              		.loc 1 101 0
 310 0142 9818     		adds	r0, r3, r2
 311 0144 01FB00F0 		mul	r0, r1, r0
 312 0148 A1EBA011 		sub	r1, r1, r0, asr #6
 313              	.LVL27:
 314 014c DAE7     		b	.L9
 315              	.LVL28:
 316              	.L22:
 317              		.loc 1 114 0
 318 014e FFF7FEFF 		bl	__stack_chk_fail
 319              	.LVL29:
 320              	.L24:
 321 0152 00BF     		.align	2
 322              	.L23:
 323 0154 00000000 		.word	ch
 324 0158 00000000 		.word	.LANCHOR0
 325 015c 00000000 		.word	.LANCHOR1
 326 0160 00000000 		.word	.LANCHOR4
 327 0164 00000000 		.word	left_motor
 328 0168 00000000 		.word	right_motor
 329 016c 00000000 		.word	__stack_chk_guard
 330 0170 00000000 		.word	.LANCHOR2
 331 0174 00000000 		.word	.LANCHOR3
 332              		.cfi_endproc
 333              	.LFE261:
 334              		.size	behaviors_thd, .-behaviors_thd
 335              		.section	.text.enable_obstacle_avoidance,"ax",%progbits
 336              		.align	1
 337              		.p2align 4,,15
 338              		.global	enable_obstacle_avoidance
 339              		.syntax unified
 340              		.thumb
 341              		.thumb_func
 342              		.fpu fpv4-sp-d16
ARM GAS  /tmp/cckjiyXc.s 			page 7


 343              		.type	enable_obstacle_avoidance, %function
 344              	enable_obstacle_avoidance:
 345              	.LFB256:
 346              		.loc 1 14 0
 347              		.cfi_startproc
 348              		@ args = 0, pretend = 0, frame = 8
 349              		@ frame_needed = 0, uses_anonymous_args = 0
 350 0000 00B5     		push	{lr}
 351              		.cfi_def_cfa_offset 4
 352              		.cfi_offset 14, -4
 353 0002 084B     		ldr	r3, .L29
 354              		.loc 1 15 0
 355 0004 0849     		ldr	r1, .L29+4
 356              		.loc 1 14 0
 357 0006 1A68     		ldr	r2, [r3]
 358 0008 83B0     		sub	sp, sp, #12
 359              		.cfi_def_cfa_offset 16
 360              		.loc 1 15 0
 361 000a 0120     		movs	r0, #1
 362              		.loc 1 14 0
 363 000c 0192     		str	r2, [sp, #4]
 364              		.loc 1 16 0
 365 000e 019A     		ldr	r2, [sp, #4]
 366 0010 1B68     		ldr	r3, [r3]
 367              		.loc 1 15 0
 368 0012 0870     		strb	r0, [r1]
 369              		.loc 1 16 0
 370 0014 9A42     		cmp	r2, r3
 371 0016 02D1     		bne	.L28
 372 0018 03B0     		add	sp, sp, #12
 373              		.cfi_remember_state
 374              		.cfi_def_cfa_offset 4
 375              		@ sp needed
 376 001a 5DF804FB 		ldr	pc, [sp], #4
 377              	.L28:
 378              		.cfi_restore_state
 379 001e FFF7FEFF 		bl	__stack_chk_fail
 380              	.LVL30:
 381              	.L30:
 382 0022 00BF     		.align	2
 383              	.L29:
 384 0024 00000000 		.word	__stack_chk_guard
 385 0028 00000000 		.word	.LANCHOR2
 386              		.cfi_endproc
 387              	.LFE256:
 388              		.size	enable_obstacle_avoidance, .-enable_obstacle_avoidance
 389              		.section	.text.disable_obstacle_avoidance,"ax",%progbits
 390              		.align	1
 391              		.p2align 4,,15
 392              		.global	disable_obstacle_avoidance
 393              		.syntax unified
 394              		.thumb
 395              		.thumb_func
 396              		.fpu fpv4-sp-d16
 397              		.type	disable_obstacle_avoidance, %function
 398              	disable_obstacle_avoidance:
 399              	.LFB257:
ARM GAS  /tmp/cckjiyXc.s 			page 8


 400              		.loc 1 18 0
 401              		.cfi_startproc
 402              		@ args = 0, pretend = 0, frame = 8
 403              		@ frame_needed = 0, uses_anonymous_args = 0
 404 0000 00B5     		push	{lr}
 405              		.cfi_def_cfa_offset 4
 406              		.cfi_offset 14, -4
 407 0002 084B     		ldr	r3, .L35
 408              		.loc 1 19 0
 409 0004 0849     		ldr	r1, .L35+4
 410              		.loc 1 18 0
 411 0006 1A68     		ldr	r2, [r3]
 412 0008 83B0     		sub	sp, sp, #12
 413              		.cfi_def_cfa_offset 16
 414              		.loc 1 19 0
 415 000a 0020     		movs	r0, #0
 416              		.loc 1 18 0
 417 000c 0192     		str	r2, [sp, #4]
 418              		.loc 1 20 0
 419 000e 019A     		ldr	r2, [sp, #4]
 420 0010 1B68     		ldr	r3, [r3]
 421              		.loc 1 19 0
 422 0012 0870     		strb	r0, [r1]
 423              		.loc 1 20 0
 424 0014 9A42     		cmp	r2, r3
 425 0016 02D1     		bne	.L34
 426 0018 03B0     		add	sp, sp, #12
 427              		.cfi_remember_state
 428              		.cfi_def_cfa_offset 4
 429              		@ sp needed
 430 001a 5DF804FB 		ldr	pc, [sp], #4
 431              	.L34:
 432              		.cfi_restore_state
 433 001e FFF7FEFF 		bl	__stack_chk_fail
 434              	.LVL31:
 435              	.L36:
 436 0022 00BF     		.align	2
 437              	.L35:
 438 0024 00000000 		.word	__stack_chk_guard
 439 0028 00000000 		.word	.LANCHOR2
 440              		.cfi_endproc
 441              	.LFE257:
 442              		.size	disable_obstacle_avoidance, .-disable_obstacle_avoidance
 443              		.section	.text.obstacle_avoidance_enabled,"ax",%progbits
 444              		.align	1
 445              		.p2align 4,,15
 446              		.global	obstacle_avoidance_enabled
 447              		.syntax unified
 448              		.thumb
 449              		.thumb_func
 450              		.fpu fpv4-sp-d16
 451              		.type	obstacle_avoidance_enabled, %function
 452              	obstacle_avoidance_enabled:
 453              	.LFB258:
 454              		.loc 1 22 0
 455              		.cfi_startproc
 456              		@ args = 0, pretend = 0, frame = 8
ARM GAS  /tmp/cckjiyXc.s 			page 9


 457              		@ frame_needed = 0, uses_anonymous_args = 0
 458 0000 00B5     		push	{lr}
 459              		.cfi_def_cfa_offset 4
 460              		.cfi_offset 14, -4
 461 0002 074B     		ldr	r3, .L41
 462              		.loc 1 23 0
 463 0004 0749     		ldr	r1, .L41+4
 464              		.loc 1 22 0
 465 0006 1A68     		ldr	r2, [r3]
 466              		.loc 1 24 0
 467 0008 0878     		ldrb	r0, [r1]	@ zero_extendqisi2
 468              		.loc 1 22 0
 469 000a 83B0     		sub	sp, sp, #12
 470              		.cfi_def_cfa_offset 16
 471              		.loc 1 22 0
 472 000c 0192     		str	r2, [sp, #4]
 473              		.loc 1 24 0
 474 000e 019A     		ldr	r2, [sp, #4]
 475 0010 1B68     		ldr	r3, [r3]
 476 0012 9A42     		cmp	r2, r3
 477 0014 02D1     		bne	.L40
 478 0016 03B0     		add	sp, sp, #12
 479              		.cfi_remember_state
 480              		.cfi_def_cfa_offset 4
 481              		@ sp needed
 482 0018 5DF804FB 		ldr	pc, [sp], #4
 483              	.L40:
 484              		.cfi_restore_state
 485 001c FFF7FEFF 		bl	__stack_chk_fail
 486              	.LVL32:
 487              	.L42:
 488              		.align	2
 489              	.L41:
 490 0020 00000000 		.word	__stack_chk_guard
 491 0024 00000000 		.word	.LANCHOR2
 492              		.cfi_endproc
 493              	.LFE258:
 494              		.size	obstacle_avoidance_enabled, .-obstacle_avoidance_enabled
 495              		.section	.text.obstacle_avoidance_set_speed_left,"ax",%progbits
 496              		.align	1
 497              		.p2align 4,,15
 498              		.global	obstacle_avoidance_set_speed_left
 499              		.syntax unified
 500              		.thumb
 501              		.thumb_func
 502              		.fpu fpv4-sp-d16
 503              		.type	obstacle_avoidance_set_speed_left, %function
 504              	obstacle_avoidance_set_speed_left:
 505              	.LFB259:
 506              		.loc 1 26 0
 507              		.cfi_startproc
 508              		@ args = 0, pretend = 0, frame = 8
 509              		@ frame_needed = 0, uses_anonymous_args = 0
 510              	.LVL33:
 511 0000 00B5     		push	{lr}
 512              		.cfi_def_cfa_offset 4
 513              		.cfi_offset 14, -4
ARM GAS  /tmp/cckjiyXc.s 			page 10


 514 0002 074B     		ldr	r3, .L47
 515              		.loc 1 27 0
 516 0004 0749     		ldr	r1, .L47+4
 517              		.loc 1 26 0
 518 0006 1A68     		ldr	r2, [r3]
 519              		.loc 1 27 0
 520 0008 0860     		str	r0, [r1]
 521              		.loc 1 26 0
 522 000a 83B0     		sub	sp, sp, #12
 523              		.cfi_def_cfa_offset 16
 524              		.loc 1 26 0
 525 000c 0192     		str	r2, [sp, #4]
 526              		.loc 1 28 0
 527 000e 019A     		ldr	r2, [sp, #4]
 528 0010 1B68     		ldr	r3, [r3]
 529 0012 9A42     		cmp	r2, r3
 530 0014 02D1     		bne	.L46
 531 0016 03B0     		add	sp, sp, #12
 532              		.cfi_remember_state
 533              		.cfi_def_cfa_offset 4
 534              		@ sp needed
 535 0018 5DF804FB 		ldr	pc, [sp], #4
 536              	.L46:
 537              		.cfi_restore_state
 538 001c FFF7FEFF 		bl	__stack_chk_fail
 539              	.LVL34:
 540              	.L48:
 541              		.align	2
 542              	.L47:
 543 0020 00000000 		.word	__stack_chk_guard
 544 0024 00000000 		.word	.LANCHOR3
 545              		.cfi_endproc
 546              	.LFE259:
 547              		.size	obstacle_avoidance_set_speed_left, .-obstacle_avoidance_set_speed_left
 548              		.section	.text.obstacle_avoidance_set_speed_right,"ax",%progbits
 549              		.align	1
 550              		.p2align 4,,15
 551              		.global	obstacle_avoidance_set_speed_right
 552              		.syntax unified
 553              		.thumb
 554              		.thumb_func
 555              		.fpu fpv4-sp-d16
 556              		.type	obstacle_avoidance_set_speed_right, %function
 557              	obstacle_avoidance_set_speed_right:
 558              	.LFB260:
 559              		.loc 1 30 0
 560              		.cfi_startproc
 561              		@ args = 0, pretend = 0, frame = 8
 562              		@ frame_needed = 0, uses_anonymous_args = 0
 563              	.LVL35:
 564 0000 00B5     		push	{lr}
 565              		.cfi_def_cfa_offset 4
 566              		.cfi_offset 14, -4
 567 0002 074B     		ldr	r3, .L53
 568              		.loc 1 31 0
 569 0004 0749     		ldr	r1, .L53+4
 570              		.loc 1 30 0
ARM GAS  /tmp/cckjiyXc.s 			page 11


 571 0006 1A68     		ldr	r2, [r3]
 572              		.loc 1 31 0
 573 0008 0860     		str	r0, [r1]
 574              		.loc 1 30 0
 575 000a 83B0     		sub	sp, sp, #12
 576              		.cfi_def_cfa_offset 16
 577              		.loc 1 30 0
 578 000c 0192     		str	r2, [sp, #4]
 579              		.loc 1 32 0
 580 000e 019A     		ldr	r2, [sp, #4]
 581 0010 1B68     		ldr	r3, [r3]
 582 0012 9A42     		cmp	r2, r3
 583 0014 02D1     		bne	.L52
 584 0016 03B0     		add	sp, sp, #12
 585              		.cfi_remember_state
 586              		.cfi_def_cfa_offset 4
 587              		@ sp needed
 588 0018 5DF804FB 		ldr	pc, [sp], #4
 589              	.L52:
 590              		.cfi_restore_state
 591 001c FFF7FEFF 		bl	__stack_chk_fail
 592              	.LVL36:
 593              	.L54:
 594              		.align	2
 595              	.L53:
 596 0020 00000000 		.word	__stack_chk_guard
 597 0024 00000000 		.word	.LANCHOR4
 598              		.cfi_endproc
 599              	.LFE260:
 600              		.size	obstacle_avoidance_set_speed_right, .-obstacle_avoidance_set_speed_right
 601              		.section	.text.behaviors_start,"ax",%progbits
 602              		.align	1
 603              		.p2align 4,,15
 604              		.global	behaviors_start
 605              		.syntax unified
 606              		.thumb
 607              		.thumb_func
 608              		.fpu fpv4-sp-d16
 609              		.type	behaviors_start, %function
 610              	behaviors_start:
 611              	.LFB262:
 612              		.loc 1 116 0
 613              		.cfi_startproc
 614              		@ args = 0, pretend = 0, frame = 8
 615              		@ frame_needed = 0, uses_anonymous_args = 0
 616 0000 30B5     		push	{r4, r5, lr}
 617              		.cfi_def_cfa_offset 12
 618              		.cfi_offset 4, -12
 619              		.cfi_offset 5, -8
 620              		.cfi_offset 14, -4
 621 0002 0B4C     		ldr	r4, .L59
 622              		.loc 1 117 0
 623 0004 0B4D     		ldr	r5, .L59+4
 624              		.loc 1 116 0
 625 0006 2268     		ldr	r2, [r4]
 626              		.loc 1 118 0
 627 0008 0B4B     		ldr	r3, .L59+8
ARM GAS  /tmp/cckjiyXc.s 			page 12


 628 000a 0C48     		ldr	r0, .L59+12
 629              		.loc 1 116 0
 630 000c 85B0     		sub	sp, sp, #20
 631              		.cfi_def_cfa_offset 32
 632              		.loc 1 117 0
 633 000e 0021     		movs	r1, #0
 634              		.loc 1 116 0
 635 0010 0392     		str	r2, [sp, #12]
 636              		.loc 1 118 0
 637 0012 0091     		str	r1, [sp]
 638 0014 4022     		movs	r2, #64
 639              		.loc 1 117 0
 640 0016 2970     		strb	r1, [r5]
 641              		.loc 1 118 0
 642 0018 4FF4FC71 		mov	r1, #504
 643 001c FFF7FEFF 		bl	chThdCreateStatic
 644              	.LVL37:
 645              		.loc 1 119 0
 646 0020 039A     		ldr	r2, [sp, #12]
 647 0022 2368     		ldr	r3, [r4]
 648 0024 9A42     		cmp	r2, r3
 649 0026 01D1     		bne	.L58
 650 0028 05B0     		add	sp, sp, #20
 651              		.cfi_remember_state
 652              		.cfi_def_cfa_offset 12
 653              		@ sp needed
 654 002a 30BD     		pop	{r4, r5, pc}
 655              	.L58:
 656              		.cfi_restore_state
 657 002c FFF7FEFF 		bl	__stack_chk_fail
 658              	.LVL38:
 659              	.L60:
 660              		.align	2
 661              	.L59:
 662 0030 00000000 		.word	__stack_chk_guard
 663 0034 00000000 		.word	.LANCHOR2
 664 0038 00000000 		.word	behaviors_thd
 665 003c 00000000 		.word	.LANCHOR5
 666              		.cfi_endproc
 667              	.LFE262:
 668              		.size	behaviors_start, .-behaviors_start
 669              		.global	target_speed_right
 670              		.global	target_speed_left
 671              		.global	oa_enabled
 672              		.section	.bss.behaviors_thd_wa,"aw",%nobits
 673              		.align	3
 674              		.set	.LANCHOR5,. + 0
 675              		.type	behaviors_thd_wa, %object
 676              		.size	behaviors_thd_wa, 504
 677              	behaviors_thd_wa:
 678 0000 00000000 		.space	504
 678      00000000 
 678      00000000 
 678      00000000 
 678      00000000 
 679              		.section	.bss.oa_enabled,"aw",%nobits
 680              		.set	.LANCHOR2,. + 0
ARM GAS  /tmp/cckjiyXc.s 			page 13


 681              		.type	oa_enabled, %object
 682              		.size	oa_enabled, 1
 683              	oa_enabled:
 684 0000 00       		.space	1
 685              		.section	.bss.target_speed_left,"aw",%nobits
 686              		.align	2
 687              		.set	.LANCHOR3,. + 0
 688              		.type	target_speed_left, %object
 689              		.size	target_speed_left, 4
 690              	target_speed_left:
 691 0000 00000000 		.space	4
 692              		.section	.bss.target_speed_right,"aw",%nobits
 693              		.align	2
 694              		.set	.LANCHOR4,. + 0
 695              		.type	target_speed_right, %object
 696              		.size	target_speed_right, 4
 697              	target_speed_right:
 698 0000 00000000 		.space	4
 699              		.section	.rodata.__FUNCTION__.9916,"a",%progbits
 700              		.align	2
 701              		.set	.LANCHOR0,. + 0
 702              		.type	__FUNCTION__.9916, %object
 703              		.size	__FUNCTION__.9916, 14
 704              	__FUNCTION__.9916:
 705 0000 62656861 		.ascii	"behaviors_thd\000"
 705      76696F72 
 705      735F7468 
 705      6400
 706              		.section	.rodata.__func__.7153,"a",%progbits
 707              		.align	2
 708              		.set	.LANCHOR1,. + 0
 709              		.type	__func__.7153, %object
 710              		.size	__func__.7153, 12
 711              	__func__.7153:
 712 0000 63685379 		.ascii	"chSysUnlock\000"
 712      73556E6C 
 712      6F636B00 
 713              		.text
 714              	.Letext0:
 715              		.file 7 "/home/stonary/Documents/e_puck_F/Eclipse_e-puck2/Tools/gcc-arm-none-eabi-7-2017-q4-major/
 716              		.file 8 "/home/stonary/Documents/e_puck_F/Eclipse_e-puck2/Tools/gcc-arm-none-eabi-7-2017-q4-major/
 717              		.file 9 "/home/stonary/Documents/e_puck_F/Eclipse_e-puck2/Tools/gcc-arm-none-eabi-7-2017-q4-major/
 718              		.file 10 "../e-puck2_main-processor/ChibiOS//os/rt/ports/ARMCMx/compilers/GCC/chtypes.h"
 719              		.file 11 "../e-puck2_main-processor/ChibiOS//os/rt/include/chsystypes.h"
 720              		.file 12 "../e-puck2_main-processor/ChibiOS//os/rt/include/chschd.h"
 721              		.file 13 "../e-puck2_main-processor/ChibiOS//os/ext/CMSIS/include/core_cm4.h"
 722              		.file 14 "../e-puck2_main-processor/ChibiOS//os/ext/CMSIS/ST/system_stm32f4xx.h"
 723              		.file 15 "../e-puck2_main-processor/ChibiOS//os/ext/CMSIS/ST/stm32f407xx.h"
 724              		.file 16 "../e-puck2_main-processor/ChibiOS//os/rt/ports/ARMCMx/chcore.h"
 725              		.file 17 "../e-puck2_main-processor/ChibiOS//os/rt/ports/ARMCMx/chcore_v7m.h"
 726              		.file 18 "../e-puck2_main-processor/ChibiOS//os/rt/include/chdebug.h"
 727              		.file 19 "../e-puck2_main-processor/ChibiOS//os/rt/include/chtm.h"
 728              		.file 20 "../e-puck2_main-processor/ChibiOS//os/rt/include/chstats.h"
 729              		.file 21 "../e-puck2_main-processor/ChibiOS//os/rt/include/chsem.h"
 730              		.file 22 "../e-puck2_main-processor/ChibiOS//os/rt/include/chmtx.h"
 731              		.file 23 "../e-puck2_main-processor/ChibiOS//os/rt/include/chevents.h"
 732              		.file 24 "../e-puck2_main-processor/ChibiOS//os/rt/include/chqueues.h"
ARM GAS  /tmp/cckjiyXc.s 			page 14


 733              		.file 25 "../e-puck2_main-processor/ChibiOS//os/hal/ports/STM32/STM32F4xx/stm32_dma.h"
 734              		.file 26 "../e-puck2_main-processor/ChibiOS//os/hal/include/hal_ioblock.h"
 735              		.file 27 "../e-puck2_main-processor/ChibiOS//os/hal/ports/STM32/LLD/GPIOv2/pal_lld.h"
 736              		.file 28 "../e-puck2_main-processor/ChibiOS//os/hal/include/adc.h"
 737              		.file 29 "../e-puck2_main-processor/ChibiOS//os/hal/ports/STM32/STM32F4xx/adc_lld.h"
 738              		.file 30 "../e-puck2_main-processor/ChibiOS//os/hal/include/can.h"
 739              		.file 31 "../e-puck2_main-processor/ChibiOS//os/hal/ports/STM32/LLD/can_lld.h"
 740              		.file 32 "../e-puck2_main-processor/ChibiOS//os/hal/include/dac.h"
 741              		.file 33 "../e-puck2_main-processor/ChibiOS//os/hal/ports/STM32/LLD/DACv1/dac_lld.h"
 742              		.file 34 "../e-puck2_main-processor/ChibiOS//os/hal/include/ext.h"
 743              		.file 35 "../e-puck2_main-processor/ChibiOS//os/hal/ports/STM32/LLD/ext_lld.h"
 744              		.file 36 "../e-puck2_main-processor/ChibiOS//os/hal/include/gpt.h"
 745              		.file 37 "../e-puck2_main-processor/ChibiOS//os/hal/ports/STM32/LLD/TIMv1/gpt_lld.h"
 746              		.file 38 "../e-puck2_main-processor/ChibiOS//os/hal/ports/STM32/LLD/TIMv1/stm32_tim.h"
 747              		.file 39 "../e-puck2_main-processor/ChibiOS//os/hal/include/i2c.h"
 748              		.file 40 "../e-puck2_main-processor/ChibiOS//os/hal/ports/STM32/LLD/I2Cv1/i2c_lld.h"
 749              		.file 41 "../e-puck2_main-processor/ChibiOS//os/hal/include/i2s.h"
 750              		.file 42 "../e-puck2_main-processor/ChibiOS//os/hal/ports/STM32/LLD/SPIv1/i2s_lld.h"
 751              		.file 43 "../e-puck2_main-processor/ChibiOS//os/hal/include/pwm.h"
 752              		.file 44 "../e-puck2_main-processor/ChibiOS//os/hal/ports/STM32/LLD/TIMv1/pwm_lld.h"
 753              		.file 45 "../e-puck2_main-processor/ChibiOS//os/hal/include/serial.h"
 754              		.file 46 "../e-puck2_main-processor/ChibiOS//os/hal/ports/STM32/LLD/USARTv1/serial_lld.h"
 755              		.file 47 "../e-puck2_main-processor/ChibiOS//os/hal/include/sdc.h"
 756              		.file 48 "../e-puck2_main-processor/ChibiOS//os/hal/ports/STM32/LLD/sdc_lld.h"
 757              		.file 49 "../e-puck2_main-processor/ChibiOS//os/hal/include/spi.h"
 758              		.file 50 "../e-puck2_main-processor/ChibiOS//os/hal/ports/STM32/LLD/SPIv1/spi_lld.h"
 759              		.file 51 "../e-puck2_main-processor/ChibiOS//os/hal/include/usb.h"
 760              		.file 52 "../e-puck2_main-processor/ChibiOS//os/hal/ports/STM32/LLD/OTGv1/usb_lld.h"
 761              		.file 53 "../e-puck2_main-processor/ChibiOS//os/hal/ports/STM32/LLD/OTGv1/stm32_otg.h"
 762              		.file 54 "../e-puck2_main-processor/src/motors.h"
 763              		.file 55 "../e-puck2_main-processor/src/sensors/proximity.h"