ARM GAS  /tmp/cc9rahCR.s 			page 1


   1              		.cpu cortex-m4
   2              		.eabi_attribute 27, 1
   3              		.eabi_attribute 28, 1
   4              		.eabi_attribute 20, 1
   5              		.eabi_attribute 21, 1
   6              		.eabi_attribute 23, 3
   7              		.eabi_attribute 24, 1
   8              		.eabi_attribute 25, 1
   9              		.eabi_attribute 26, 1
  10              		.eabi_attribute 30, 2
  11              		.eabi_attribute 34, 1
  12              		.eabi_attribute 18, 4
  13              		.file	"main.c"
  14              		.text
  15              	.Ltext0:
  16              		.cfi_sections	.debug_frame
  17              		.section	.text.rand,"ax",%progbits
  18              		.align	1
  19              		.p2align 4,,15
  20              		.global	rand
  21              		.syntax unified
  22              		.thumb
  23              		.thumb_func
  24              		.fpu fpv4-sp-d16
  25              		.type	rand, %function
  26              	rand:
  27              	.LFB259:
  28              		.file 1 "main.c"
  29              		.loc 1 31 0
  30              		.cfi_startproc
  31              		@ args = 0, pretend = 0, frame = 8
  32              		@ frame_needed = 0, uses_anonymous_args = 0
  33 0000 30B5     		push	{r4, r5, lr}
  34              		.cfi_def_cfa_offset 12
  35              		.cfi_offset 4, -12
  36              		.cfi_offset 5, -8
  37              		.cfi_offset 14, -4
  38 0002 0B4A     		ldr	r2, .L6
  39              		.loc 1 32 0
  40 0004 0B4B     		ldr	r3, .L6+4
  41              		.loc 1 31 0
  42 0006 1168     		ldr	r1, [r2]
  43              		.loc 1 32 0
  44 0008 1868     		ldr	r0, [r3]
  45 000a 0B4D     		ldr	r5, .L6+8
  46              		.loc 1 31 0
  47 000c 83B0     		sub	sp, sp, #12
  48              		.cfi_def_cfa_offset 24
  49              		.loc 1 32 0
  50 000e 43F23904 		movw	r4, #12345
  51              		.loc 1 31 0
  52 0012 0191     		str	r1, [sp, #4]
  53              		.loc 1 33 0
  54 0014 0199     		ldr	r1, [sp, #4]
  55 0016 1268     		ldr	r2, [r2]
  56              		.loc 1 32 0
  57 0018 05FB0040 		mla	r0, r5, r0, r4
ARM GAS  /tmp/cc9rahCR.s 			page 2


  58 001c 20F00040 		bic	r0, r0, #-2147483648
  59              		.loc 1 33 0
  60 0020 9142     		cmp	r1, r2
  61              		.loc 1 32 0
  62 0022 1860     		str	r0, [r3]
  63              		.loc 1 33 0
  64 0024 01D1     		bne	.L5
  65 0026 03B0     		add	sp, sp, #12
  66              		.cfi_remember_state
  67              		.cfi_def_cfa_offset 12
  68              		@ sp needed
  69 0028 30BD     		pop	{r4, r5, pc}
  70              	.L5:
  71              		.cfi_restore_state
  72 002a FFF7FEFF 		bl	__stack_chk_fail
  73              	.LVL0:
  74              	.L7:
  75 002e 00BF     		.align	2
  76              	.L6:
  77 0030 00000000 		.word	__stack_chk_guard
  78 0034 00000000 		.word	.LANCHOR0
  79 0038 ED469306 		.word	110315245
  80              		.cfi_endproc
  81              	.LFE259:
  82              		.size	rand, .-rand
  83              		.section	.text.GetTargetLocation,"ax",%progbits
  84              		.align	1
  85              		.p2align 4,,15
  86              		.global	GetTargetLocation
  87              		.syntax unified
  88              		.thumb
  89              		.thumb_func
  90              		.fpu fpv4-sp-d16
  91              		.type	GetTargetLocation, %function
  92              	GetTargetLocation:
  93              	.LFB264:
  94              		.loc 1 278 0
  95              		.cfi_startproc
  96              		@ args = 0, pretend = 0, frame = 8
  97              		@ frame_needed = 0, uses_anonymous_args = 0
  98              	.LVL1:
  99 0000 00B5     		push	{lr}
 100              		.cfi_def_cfa_offset 4
 101              		.cfi_offset 14, -4
 102 0002 1A4B     		ldr	r3, .L21
 103              		.loc 1 286 0
 104 0004 0268     		ldr	r2, [r0]
 105              		.loc 1 278 0
 106 0006 1968     		ldr	r1, [r3]
 107 0008 83B0     		sub	sp, sp, #12
 108              		.cfi_def_cfa_offset 16
 109              		.loc 1 286 0
 110 000a 502A     		cmp	r2, #80
 111              		.loc 1 278 0
 112 000c 0191     		str	r1, [sp, #4]
 113              		.loc 1 286 0
 114 000e 18DC     		bgt	.L12
ARM GAS  /tmp/cc9rahCR.s 			page 3


 115              		.loc 1 286 0 is_stmt 0 discriminator 2
 116 0010 C269     		ldr	r2, [r0, #28]
 117 0012 502A     		cmp	r2, #80
 118 0014 15DC     		bgt	.L12
 119              		.loc 1 288 0 is_stmt 1
 120 0016 8269     		ldr	r2, [r0, #24]
 121 0018 462A     		cmp	r2, #70
 122 001a 1ADC     		bgt	.L13
 123              		.loc 1 290 0
 124 001c 4268     		ldr	r2, [r0, #4]
 125 001e 462A     		cmp	r2, #70
 126 0020 1BDC     		bgt	.L14
 127              		.loc 1 292 0
 128 0022 4269     		ldr	r2, [r0, #20]
 129 0024 642A     		cmp	r2, #100
 130 0026 1ADC     		bgt	.L15
 131              		.loc 1 294 0
 132 0028 8268     		ldr	r2, [r0, #8]
 133 002a 502A     		cmp	r2, #80
 134 002c 19DC     		bgt	.L16
 135              	.LVL2:
 136              	.LBB33:
 137              	.LBB34:
 138              		.loc 1 296 0
 139 002e C268     		ldr	r2, [r0, #12]
 140 0030 642A     		cmp	r2, #100
 141 0032 10DC     		bgt	.L17
 142 0034 0269     		ldr	r2, [r0, #16]
 143 0036 642A     		cmp	r2, #100
 144              		.loc 1 297 0
 145 0038 CCBF     		ite	gt
 146 003a 0520     		movgt	r0, #5
 147              	.LVL3:
 148 003c 4FF0FF30 		movle	r0, #-1
 149 0040 00E0     		b	.L8
 150              	.LVL4:
 151              	.L12:
 152              	.LBE34:
 153              	.LBE33:
 154              		.loc 1 286 0
 155 0042 0020     		movs	r0, #0
 156              	.LVL5:
 157              	.L8:
 158              		.loc 1 298 0
 159 0044 019A     		ldr	r2, [sp, #4]
 160 0046 1B68     		ldr	r3, [r3]
 161 0048 9A42     		cmp	r2, r3
 162 004a 0CD1     		bne	.L20
 163 004c 03B0     		add	sp, sp, #12
 164              		.cfi_remember_state
 165              		.cfi_def_cfa_offset 4
 166              		@ sp needed
 167 004e 5DF804FB 		ldr	pc, [sp], #4
 168              	.LVL6:
 169              	.L13:
 170              		.cfi_restore_state
 171              		.loc 1 288 0
ARM GAS  /tmp/cc9rahCR.s 			page 4


 172 0052 0120     		movs	r0, #1
 173              	.LVL7:
 174 0054 F6E7     		b	.L8
 175              	.LVL8:
 176              	.L17:
 177              	.LBB36:
 178              	.LBB35:
 179              		.loc 1 296 0
 180 0056 0520     		movs	r0, #5
 181              	.LVL9:
 182 0058 F4E7     		b	.L8
 183              	.LVL10:
 184              	.L14:
 185              	.LBE35:
 186              	.LBE36:
 187              		.loc 1 290 0
 188 005a 0220     		movs	r0, #2
 189              	.LVL11:
 190 005c F2E7     		b	.L8
 191              	.LVL12:
 192              	.L15:
 193              		.loc 1 292 0
 194 005e 0320     		movs	r0, #3
 195              	.LVL13:
 196 0060 F0E7     		b	.L8
 197              	.LVL14:
 198              	.L16:
 199              		.loc 1 294 0
 200 0062 0420     		movs	r0, #4
 201              	.LVL15:
 202 0064 EEE7     		b	.L8
 203              	.L20:
 204              		.loc 1 298 0
 205 0066 FFF7FEFF 		bl	__stack_chk_fail
 206              	.LVL16:
 207              	.L22:
 208 006a 00BF     		.align	2
 209              	.L21:
 210 006c 00000000 		.word	__stack_chk_guard
 211              		.cfi_endproc
 212              	.LFE264:
 213              		.size	GetTargetLocation, .-GetTargetLocation
 214              		.section	.text.SendBluetooth,"ax",%progbits
 215              		.align	1
 216              		.p2align 4,,15
 217              		.global	SendBluetooth
 218              		.syntax unified
 219              		.thumb
 220              		.thumb_func
 221              		.fpu fpv4-sp-d16
 222              		.type	SendBluetooth, %function
 223              	SendBluetooth:
 224              	.LFB265:
 225              		.loc 1 301 0
 226              		.cfi_startproc
 227              		@ args = 0, pretend = 0, frame = 8
 228              		@ frame_needed = 1, uses_anonymous_args = 0
ARM GAS  /tmp/cc9rahCR.s 			page 5


 229              	.LVL17:
 230 0000 90B5     		push	{r4, r7, lr}
 231              		.cfi_def_cfa_offset 12
 232              		.cfi_offset 4, -12
 233              		.cfi_offset 7, -8
 234              		.cfi_offset 14, -4
 235              		.loc 1 302 0
 236 0002 0731     		adds	r1, r1, #7
 237              	.LVL18:
 238              		.loc 1 301 0
 239 0004 83B0     		sub	sp, sp, #12
 240              		.cfi_def_cfa_offset 24
 241              		.loc 1 302 0
 242 0006 21F00701 		bic	r1, r1, #7
 243              	.LVL19:
 244              		.loc 1 301 0
 245 000a 0B4C     		ldr	r4, .L27
 246 000c 00AF     		add	r7, sp, #0
 247              		.cfi_def_cfa_register 7
 248              		.loc 1 302 0
 249 000e ADEB010D 		sub	sp, sp, r1
 250              		.loc 1 301 0
 251 0012 2368     		ldr	r3, [r4]
 252 0014 7B60     		str	r3, [r7, #4]
 253              	.LVL20:
 254              		.loc 1 303 0
 255 0016 0146     		mov	r1, r0
 256 0018 6846     		mov	r0, sp
 257              	.LVL21:
 258 001a FFF7FEFF 		bl	sprintf
 259              	.LVL22:
 260              		.loc 1 304 0
 261 001e 0146     		mov	r1, r0
 262 0020 6846     		mov	r0, sp
 263              	.LVL23:
 264 0022 FFF7FEFF 		bl	e_send_uart1_char
 265              	.LVL24:
 266              		.loc 1 305 0
 267 0026 7A68     		ldr	r2, [r7, #4]
 268 0028 2368     		ldr	r3, [r4]
 269 002a 9A42     		cmp	r2, r3
 270 002c 02D1     		bne	.L26
 271 002e 0C37     		adds	r7, r7, #12
 272              		.cfi_remember_state
 273              		.cfi_def_cfa_offset 12
 274 0030 BD46     		mov	sp, r7
 275              		.cfi_def_cfa_register 13
 276              	.LVL25:
 277              		@ sp needed
 278 0032 90BD     		pop	{r4, r7, pc}
 279              	.LVL26:
 280              	.L26:
 281              		.cfi_restore_state
 282 0034 FFF7FEFF 		bl	__stack_chk_fail
 283              	.LVL27:
 284              	.L28:
 285              		.align	2
ARM GAS  /tmp/cc9rahCR.s 			page 6


 286              	.L27:
 287 0038 00000000 		.word	__stack_chk_guard
 288              		.cfi_endproc
 289              	.LFE265:
 290              		.size	SendBluetooth, .-SendBluetooth
 291              		.section	.text.moving,"ax",%progbits
 292              		.align	1
 293              		.p2align 4,,15
 294              		.global	moving
 295              		.syntax unified
 296              		.thumb
 297              		.thumb_func
 298              		.fpu fpv4-sp-d16
 299              		.type	moving, %function
 300              	moving:
 301              	.LFB267:
 302              		.loc 1 330 0
 303              		.cfi_startproc
 304              		@ args = 0, pretend = 0, frame = 104
 305              		@ frame_needed = 0, uses_anonymous_args = 0
 306              	.LVL28:
 307 0000 70B5     		push	{r4, r5, r6, lr}
 308              		.cfi_def_cfa_offset 16
 309              		.cfi_offset 4, -16
 310              		.cfi_offset 5, -12
 311              		.cfi_offset 6, -8
 312              		.cfi_offset 14, -4
 313 0002 124C     		ldr	r4, .L35
 314 0004 9AB0     		sub	sp, sp, #104
 315              		.cfi_def_cfa_offset 120
 316              		.loc 1 330 0
 317 0006 2368     		ldr	r3, [r4]
 318 0008 1993     		str	r3, [sp, #100]
 319              		.loc 1 331 0
 320 000a B0F57A7F 		cmp	r0, #1000
 321 000e 0BDC     		bgt	.L30
 322 0010 0546     		mov	r5, r0
 323              		.loc 1 332 0
 324 0012 FFF7FEFF 		bl	left_motor_set_speed
 325              	.LVL29:
 326              		.loc 1 333 0
 327 0016 2846     		mov	r0, r5
 328 0018 FFF7FEFF 		bl	right_motor_set_speed
 329              	.LVL30:
 330              	.L29:
 331              		.loc 1 342 0
 332 001c 199A     		ldr	r2, [sp, #100]
 333 001e 2368     		ldr	r3, [r4]
 334 0020 9A42     		cmp	r2, r3
 335 0022 10D1     		bne	.L34
 336 0024 1AB0     		add	sp, sp, #104
 337              		.cfi_remember_state
 338              		.cfi_def_cfa_offset 16
 339              		@ sp needed
 340 0026 70BD     		pop	{r4, r5, r6, pc}
 341              	.LVL31:
 342              	.L30:
ARM GAS  /tmp/cc9rahCR.s 			page 7


 343              		.cfi_restore_state
 344              	.LBB40:
 345              	.LBB41:
 346              		.loc 1 338 0
 347 0028 094E     		ldr	r6, .L35+4
 348 002a 0FCE     		ldmia	r6!, {r0, r1, r2, r3}
 349              	.LVL32:
 350 002c 6D46     		mov	r5, sp
 351 002e 0FC5     		stmia	r5!, {r0, r1, r2, r3}
 352 0030 3368     		ldr	r3, [r6]
 353 0032 2B70     		strb	r3, [r5]
 354              	.LVL33:
 355              		.loc 1 339 0
 356 0034 6846     		mov	r0, sp
 357 0036 1021     		movs	r1, #16
 358 0038 FFF7FEFF 		bl	e_send_uart1_char
 359              	.LVL34:
 360              		.loc 1 340 0
 361 003c 4FF47A70 		mov	r0, #1000
 362 0040 FFF7FEFF 		bl	moving
 363              	.LVL35:
 364              	.LBE41:
 365              	.LBE40:
 366              		.loc 1 342 0
 367 0044 EAE7     		b	.L29
 368              	.LVL36:
 369              	.L34:
 370 0046 FFF7FEFF 		bl	__stack_chk_fail
 371              	.LVL37:
 372              	.L36:
 373 004a 00BF     		.align	2
 374              	.L35:
 375 004c 00000000 		.word	__stack_chk_guard
 376 0050 00000000 		.word	.LC0
 377              		.cfi_endproc
 378              	.LFE267:
 379              		.size	moving, .-moving
 380              		.section	.text.FindTarget_TOF,"ax",%progbits
 381              		.align	1
 382              		.p2align 4,,15
 383              		.global	FindTarget_TOF
 384              		.syntax unified
 385              		.thumb
 386              		.thumb_func
 387              		.fpu fpv4-sp-d16
 388              		.type	FindTarget_TOF, %function
 389              	FindTarget_TOF:
 390              	.LFB266:
 391              		.loc 1 308 0
 392              		.cfi_startproc
 393              		@ args = 0, pretend = 0, frame = 8
 394              		@ frame_needed = 0, uses_anonymous_args = 0
 395              	.LVL38:
 396 0000 30B5     		push	{r4, r5, lr}
 397              		.cfi_def_cfa_offset 12
 398              		.cfi_offset 4, -12
 399              		.cfi_offset 5, -8
ARM GAS  /tmp/cc9rahCR.s 			page 8


 400              		.cfi_offset 14, -4
 401 0002 0E4D     		ldr	r5, .L44
 402 0004 83B0     		sub	sp, sp, #12
 403              		.cfi_def_cfa_offset 24
 404              		.loc 1 308 0
 405 0006 2B68     		ldr	r3, [r5]
 406 0008 0193     		str	r3, [sp, #4]
 407              	.LVL39:
 408 000a 0446     		mov	r4, r0
 409              		.loc 1 310 0
 410 000c 02E0     		b	.L38
 411              	.LVL40:
 412              	.L39:
 413              		.loc 1 313 0
 414 000e 2046     		mov	r0, r4
 415 0010 FFF7FEFF 		bl	moving
 416              	.LVL41:
 417              	.L38:
 418              		.loc 1 310 0
 419 0014 FFF7FEFF 		bl	VL53L0X_get_dist_mm
 420              	.LVL42:
 421 0018 B0F5FA7F 		cmp	r0, #500
 422 001c F7D3     		bcc	.L39
 423              	.LVL43:
 424              	.LBB42:
 425              	.LBB43:
 426              		.loc 1 332 0
 427 001e 0020     		movs	r0, #0
 428 0020 FFF7FEFF 		bl	left_motor_set_speed
 429              	.LVL44:
 430              		.loc 1 333 0
 431 0024 019A     		ldr	r2, [sp, #4]
 432 0026 2B68     		ldr	r3, [r5]
 433 0028 9A42     		cmp	r2, r3
 434 002a 05D1     		bne	.L43
 435 002c 0020     		movs	r0, #0
 436              	.LBE43:
 437              	.LBE42:
 438              		.loc 1 328 0
 439 002e 03B0     		add	sp, sp, #12
 440              		.cfi_remember_state
 441              		.cfi_def_cfa_offset 12
 442              		@ sp needed
 443 0030 BDE83040 		pop	{r4, r5, lr}
 444              		.cfi_restore 14
 445              		.cfi_restore 5
 446              		.cfi_restore 4
 447              		.cfi_def_cfa_offset 0
 448              	.LVL45:
 449              	.LBB45:
 450              	.LBB44:
 451              		.loc 1 333 0
 452 0034 FFF7FEBF 		b	right_motor_set_speed
 453              	.LVL46:
 454              	.L43:
 455              		.cfi_restore_state
 456 0038 FFF7FEFF 		bl	__stack_chk_fail
ARM GAS  /tmp/cc9rahCR.s 			page 9


 457              	.LVL47:
 458              	.L45:
 459              		.align	2
 460              	.L44:
 461 003c 00000000 		.word	__stack_chk_guard
 462              	.LBE44:
 463              	.LBE45:
 464              		.cfi_endproc
 465              	.LFE266:
 466              		.size	FindTarget_TOF, .-FindTarget_TOF
 467              		.section	.text.rotation,"ax",%progbits
 468              		.align	1
 469              		.p2align 4,,15
 470              		.global	rotation
 471              		.syntax unified
 472              		.thumb
 473              		.thumb_func
 474              		.fpu fpv4-sp-d16
 475              		.type	rotation, %function
 476              	rotation:
 477              	.LFB268:
 478              		.loc 1 344 0
 479              		.cfi_startproc
 480              		@ args = 0, pretend = 0, frame = 104
 481              		@ frame_needed = 0, uses_anonymous_args = 0
 482              	.LVL48:
 483 0000 70B5     		push	{r4, r5, r6, lr}
 484              		.cfi_def_cfa_offset 16
 485              		.cfi_offset 4, -16
 486              		.cfi_offset 5, -12
 487              		.cfi_offset 6, -8
 488              		.cfi_offset 14, -4
 489 0002 124C     		ldr	r4, .L52
 490 0004 9AB0     		sub	sp, sp, #104
 491              		.cfi_def_cfa_offset 120
 492              		.loc 1 344 0
 493 0006 2368     		ldr	r3, [r4]
 494 0008 1993     		str	r3, [sp, #100]
 495              		.loc 1 346 0
 496 000a B0F57A7F 		cmp	r0, #1000
 497 000e 0BDC     		bgt	.L47
 498 0010 0546     		mov	r5, r0
 499              		.loc 1 347 0
 500 0012 FFF7FEFF 		bl	left_motor_set_speed
 501              	.LVL49:
 502              		.loc 1 348 0
 503 0016 6842     		negs	r0, r5
 504 0018 FFF7FEFF 		bl	right_motor_set_speed
 505              	.LVL50:
 506              	.L46:
 507              		.loc 1 357 0
 508 001c 199A     		ldr	r2, [sp, #100]
 509 001e 2368     		ldr	r3, [r4]
 510 0020 9A42     		cmp	r2, r3
 511 0022 10D1     		bne	.L51
 512 0024 1AB0     		add	sp, sp, #104
 513              		.cfi_remember_state
ARM GAS  /tmp/cc9rahCR.s 			page 10


 514              		.cfi_def_cfa_offset 16
 515              		@ sp needed
 516 0026 70BD     		pop	{r4, r5, r6, pc}
 517              	.LVL51:
 518              	.L47:
 519              		.cfi_restore_state
 520              	.LBB49:
 521              	.LBB50:
 522              		.loc 1 353 0
 523 0028 094E     		ldr	r6, .L52+4
 524 002a 0FCE     		ldmia	r6!, {r0, r1, r2, r3}
 525              	.LVL52:
 526 002c 6D46     		mov	r5, sp
 527 002e 0FC5     		stmia	r5!, {r0, r1, r2, r3}
 528 0030 3368     		ldr	r3, [r6]
 529 0032 2B70     		strb	r3, [r5]
 530              	.LVL53:
 531              		.loc 1 354 0
 532 0034 6846     		mov	r0, sp
 533 0036 1021     		movs	r1, #16
 534 0038 FFF7FEFF 		bl	e_send_uart1_char
 535              	.LVL54:
 536              		.loc 1 355 0
 537 003c 4FF47A70 		mov	r0, #1000
 538 0040 FFF7FEFF 		bl	rotation
 539              	.LVL55:
 540              	.LBE50:
 541              	.LBE49:
 542              		.loc 1 357 0
 543 0044 EAE7     		b	.L46
 544              	.LVL56:
 545              	.L51:
 546 0046 FFF7FEFF 		bl	__stack_chk_fail
 547              	.LVL57:
 548              	.L53:
 549 004a 00BF     		.align	2
 550              	.L52:
 551 004c 00000000 		.word	__stack_chk_guard
 552 0050 00000000 		.word	.LC0
 553              		.cfi_endproc
 554              	.LFE268:
 555              		.size	rotation, .-rotation
 556              		.section	.text.FollowTarget2,"ax",%progbits
 557              		.align	1
 558              		.p2align 4,,15
 559              		.global	FollowTarget2
 560              		.syntax unified
 561              		.thumb
 562              		.thumb_func
 563              		.fpu fpv4-sp-d16
 564              		.type	FollowTarget2, %function
 565              	FollowTarget2:
 566              	.LFB263:
 567              		.loc 1 236 0
 568              		.cfi_startproc
 569              		@ args = 0, pretend = 0, frame = 8
 570              		@ frame_needed = 0, uses_anonymous_args = 0
ARM GAS  /tmp/cc9rahCR.s 			page 11


 571              	.LVL58:
 572 0000 70B5     		push	{r4, r5, r6, lr}
 573              		.cfi_def_cfa_offset 16
 574              		.cfi_offset 4, -16
 575              		.cfi_offset 5, -12
 576              		.cfi_offset 6, -8
 577              		.cfi_offset 14, -4
 578 0002 314D     		ldr	r5, .L78
 579 0004 82B0     		sub	sp, sp, #8
 580              		.cfi_def_cfa_offset 24
 581              		.loc 1 236 0
 582 0006 2B68     		ldr	r3, [r5]
 583 0008 0193     		str	r3, [sp, #4]
 584              	.LVL59:
 585 000a 0446     		mov	r4, r0
 586 000c 0E46     		mov	r6, r1
 587              		.loc 1 239 0
 588 000e FFF7FEFF 		bl	VL53L0X_get_dist_mm
 589              	.LVL60:
 590              		.loc 1 240 0
 591 0012 631C     		adds	r3, r4, #1
 592 0014 062B     		cmp	r3, #6
 593 0016 3CD8     		bhi	.L54
 594 0018 DFE803F0 		tbb	[pc, r3]
 595              	.L57:
 596 001c 31       		.byte	(.L56-.L57)/2
 597 001d 17       		.byte	(.L58-.L57)/2
 598 001e 0F       		.byte	(.L59-.L57)/2
 599 001f 04       		.byte	(.L60-.L57)/2
 600 0020 0F       		.byte	(.L59-.L57)/2
 601 0021 04       		.byte	(.L60-.L57)/2
 602 0022 26       		.byte	(.L61-.L57)/2
 603 0023 00       		.p2align 1
 604              	.L60:
 605              		.loc 1 254 0
 606 0024 019A     		ldr	r2, [sp, #4]
 607 0026 2B68     		ldr	r3, [r5]
 608 0028 9A42     		cmp	r2, r3
 609 002a 08BF     		it	eq
 610 002c 3046     		moveq	r0, r6
 611              	.LVL61:
 612 002e 0AD1     		bne	.L75
 613              	.L74:
 614              		.loc 1 275 0
 615 0030 02B0     		add	sp, sp, #8
 616              		.cfi_remember_state
 617              		.cfi_def_cfa_offset 16
 618              		@ sp needed
 619 0032 BDE87040 		pop	{r4, r5, r6, lr}
 620              		.cfi_restore 14
 621              		.cfi_restore 6
 622              		.cfi_restore 5
 623              		.cfi_restore 4
 624              		.cfi_def_cfa_offset 0
 625              	.LVL62:
 626              		.loc 1 254 0
 627 0036 FFF7FEBF 		b	rotation
ARM GAS  /tmp/cc9rahCR.s 			page 12


 628              	.LVL63:
 629              	.L59:
 630              		.cfi_restore_state
 631              		.loc 1 250 0
 632 003a 019A     		ldr	r2, [sp, #4]
 633 003c 2B68     		ldr	r3, [r5]
 634 003e 9A42     		cmp	r2, r3
 635 0040 08BF     		it	eq
 636 0042 7042     		rsbeq	r0, r6, #0
 637              	.LVL64:
 638 0044 F4D0     		beq	.L74
 639              	.L75:
 640              		.loc 1 275 0
 641 0046 FFF7FEFF 		bl	__stack_chk_fail
 642              	.LVL65:
 643              	.L58:
 644              		.loc 1 244 0
 645 004a 1928     		cmp	r0, #25
 646 004c 34D8     		bhi	.L77
 647              		.loc 1 245 0
 648 004e 0E28     		cmp	r0, #14
 649 0050 25D8     		bhi	.L64
 650              		.loc 1 245 0 is_stmt 0 discriminator 1
 651 0052 019A     		ldr	r2, [sp, #4]
 652 0054 2B68     		ldr	r3, [r5]
 653 0056 9A42     		cmp	r2, r3
 654 0058 08BF     		it	eq
 655 005a 7042     		rsbeq	r0, r6, #0
 656              	.LVL66:
 657 005c F3D1     		bne	.L75
 658              	.L73:
 659              		.loc 1 275 0 is_stmt 1 discriminator 1
 660 005e 02B0     		add	sp, sp, #8
 661              		.cfi_remember_state
 662              		.cfi_def_cfa_offset 16
 663              		@ sp needed
 664 0060 BDE87040 		pop	{r4, r5, r6, lr}
 665              		.cfi_restore 14
 666              		.cfi_restore 6
 667              		.cfi_restore 5
 668              		.cfi_restore 4
 669              		.cfi_def_cfa_offset 0
 670              	.LVL67:
 671              		.loc 1 245 0 discriminator 1
 672 0064 FFF7FEBF 		b	moving
 673              	.LVL68:
 674              	.L61:
 675              		.cfi_restore_state
 676              		.loc 1 266 0
 677 0068 019A     		ldr	r2, [sp, #4]
 678 006a 2B68     		ldr	r3, [r5]
 679 006c 9A42     		cmp	r2, r3
 680 006e 08BF     		it	eq
 681 0070 7000     		lsleq	r0, r6, #1
 682              	.LVL69:
 683 0072 E8D1     		bne	.L75
 684              		.loc 1 275 0
ARM GAS  /tmp/cc9rahCR.s 			page 13


 685 0074 02B0     		add	sp, sp, #8
 686              		.cfi_remember_state
 687              		.cfi_def_cfa_offset 16
 688              		@ sp needed
 689 0076 BDE87040 		pop	{r4, r5, r6, lr}
 690              		.cfi_restore 14
 691              		.cfi_restore 6
 692              		.cfi_restore 5
 693              		.cfi_restore 4
 694              		.cfi_def_cfa_offset 0
 695              	.LVL70:
 696              		.loc 1 254 0
 697 007a FFF7FEBF 		b	rotation
 698              	.LVL71:
 699              	.L56:
 700              		.cfi_restore_state
 701              		.loc 1 269 0
 702 007e 019A     		ldr	r2, [sp, #4]
 703 0080 2B68     		ldr	r3, [r5]
 704 0082 9A42     		cmp	r2, r3
 705 0084 DFD1     		bne	.L75
 706 0086 3046     		mov	r0, r6
 707              	.LVL72:
 708              		.loc 1 275 0
 709 0088 02B0     		add	sp, sp, #8
 710              		.cfi_remember_state
 711              		.cfi_def_cfa_offset 16
 712              		@ sp needed
 713 008a BDE87040 		pop	{r4, r5, r6, lr}
 714              		.cfi_restore 14
 715              		.cfi_restore 6
 716              		.cfi_restore 5
 717              		.cfi_restore 4
 718              		.cfi_def_cfa_offset 0
 719              	.LVL73:
 720              		.loc 1 269 0
 721 008e FFF7FEBF 		b	FindTarget_TOF
 722              	.LVL74:
 723              	.L54:
 724              		.loc 1 275 0
 725 0092 019A     		ldr	r2, [sp, #4]
 726 0094 2B68     		ldr	r3, [r5]
 727 0096 9A42     		cmp	r2, r3
 728 0098 D5D1     		bne	.L75
 729 009a 02B0     		add	sp, sp, #8
 730              		@ sp needed
 731 009c 70BD     		pop	{r4, r5, r6, pc}
 732              	.LVL75:
 733              	.L64:
 734              		.cfi_restore_state
 735              	.LBB51:
 736              	.LBB52:
 737              		.loc 1 332 0
 738 009e 0020     		movs	r0, #0
 739              	.LVL76:
 740 00a0 FFF7FEFF 		bl	left_motor_set_speed
 741              	.LVL77:
ARM GAS  /tmp/cc9rahCR.s 			page 14


 742              		.loc 1 333 0
 743 00a4 019A     		ldr	r2, [sp, #4]
 744 00a6 2B68     		ldr	r3, [r5]
 745 00a8 9A42     		cmp	r2, r3
 746 00aa CCD1     		bne	.L75
 747 00ac 0020     		movs	r0, #0
 748              	.LBE52:
 749              	.LBE51:
 750              		.loc 1 275 0
 751 00ae 02B0     		add	sp, sp, #8
 752              		.cfi_remember_state
 753              		.cfi_def_cfa_offset 16
 754              		@ sp needed
 755 00b0 BDE87040 		pop	{r4, r5, r6, lr}
 756              		.cfi_restore 14
 757              		.cfi_restore 6
 758              		.cfi_restore 5
 759              		.cfi_restore 4
 760              		.cfi_def_cfa_offset 0
 761              	.LVL78:
 762              	.LBB54:
 763              	.LBB53:
 764              		.loc 1 333 0
 765 00b4 FFF7FEBF 		b	right_motor_set_speed
 766              	.LVL79:
 767              	.L77:
 768              		.cfi_restore_state
 769              	.LBE53:
 770              	.LBE54:
 771              		.loc 1 244 0 discriminator 1
 772 00b8 019A     		ldr	r2, [sp, #4]
 773 00ba 2B68     		ldr	r3, [r5]
 774 00bc 9A42     		cmp	r2, r3
 775 00be 08BF     		it	eq
 776 00c0 3046     		moveq	r0, r6
 777              	.LVL80:
 778 00c2 CCD0     		beq	.L73
 779 00c4 BFE7     		b	.L75
 780              	.L79:
 781 00c6 00BF     		.align	2
 782              	.L78:
 783 00c8 00000000 		.word	__stack_chk_guard
 784              		.cfi_endproc
 785              	.LFE263:
 786              		.size	FollowTarget2, .-FollowTarget2
 787              		.section	.text.random_choice,"ax",%progbits
 788              		.align	1
 789              		.p2align 4,,15
 790              		.global	random_choice
 791              		.syntax unified
 792              		.thumb
 793              		.thumb_func
 794              		.fpu fpv4-sp-d16
 795              		.type	random_choice, %function
 796              	random_choice:
 797              	.LFB261:
 798              		.loc 1 141 0
ARM GAS  /tmp/cc9rahCR.s 			page 15


 799              		.cfi_startproc
 800              		@ args = 0, pretend = 0, frame = 8
 801              		@ frame_needed = 0, uses_anonymous_args = 0
 802              	.LVL81:
 803 0000 30B5     		push	{r4, r5, lr}
 804              		.cfi_def_cfa_offset 12
 805              		.cfi_offset 4, -12
 806              		.cfi_offset 5, -8
 807              		.cfi_offset 14, -4
 808 0002 344C     		ldr	r4, .L111
 809 0004 83B0     		sub	sp, sp, #12
 810              		.cfi_def_cfa_offset 24
 811              		.loc 1 141 0
 812 0006 2368     		ldr	r3, [r4]
 813 0008 0193     		str	r3, [sp, #4]
 814              		.loc 1 142 0
 815 000a 0F29     		cmp	r1, #15
 816 000c 5CD8     		bhi	.L80
 817 000e DFE801F0 		tbb	[pc, r1]
 818              	.L83:
 819 0012 14       		.byte	(.L99-.L83)/2
 820 0013 14       		.byte	(.L99-.L83)/2
 821 0014 08       		.byte	(.L84-.L83)/2
 822 0015 14       		.byte	(.L99-.L83)/2
 823 0016 41       		.byte	(.L85-.L83)/2
 824 0017 14       		.byte	(.L99-.L83)/2
 825 0018 5B       		.byte	(.L80-.L83)/2
 826 0019 5B       		.byte	(.L80-.L83)/2
 827 001a 1D       		.byte	(.L86-.L83)/2
 828 001b 29       		.byte	(.L87-.L83)/2
 829 001c 32       		.byte	(.L88-.L83)/2
 830 001d 5B       		.byte	(.L80-.L83)/2
 831 001e 5B       		.byte	(.L80-.L83)/2
 832 001f 3A       		.byte	(.L89-.L83)/2
 833 0020 5B       		.byte	(.L80-.L83)/2
 834 0021 4E       		.byte	(.L90-.L83)/2
 835              		.p2align 1
 836              	.L84:
 837              	.LBB55:
 838              	.LBB56:
 839              	.LBB57:
 840              	.LBB58:
 841              		.loc 1 32 0
 842 0022 2D4A     		ldr	r2, .L111+4
 843 0024 2D4D     		ldr	r5, .L111+8
 844 0026 1368     		ldr	r3, [r2]
 845 0028 43F23901 		movw	r1, #12345
 846              	.LVL82:
 847 002c 05FB0313 		mla	r3, r5, r3, r1
 848 0030 23F00041 		bic	r1, r3, #-2147483648
 849 0034 1160     		str	r1, [r2]
 850              	.LBE58:
 851              	.LBE57:
 852              	.LBE56:
 853              	.LBE55:
 854              		.loc 1 167 0
 855 0036 DA07     		lsls	r2, r3, #31
ARM GAS  /tmp/cc9rahCR.s 			page 16


 856 0038 1DD4     		bmi	.L88
 857              	.L99:
 858              		.loc 1 167 0 is_stmt 0 discriminator 1
 859 003a 019A     		ldr	r2, [sp, #4]
 860 003c 2368     		ldr	r3, [r4]
 861 003e 9A42     		cmp	r2, r3
 862 0040 1FD1     		bne	.L108
 863              	.LVL83:
 864              	.L98:
 865              		.loc 1 194 0 is_stmt 1 discriminator 1
 866 0042 03B0     		add	sp, sp, #12
 867              		.cfi_remember_state
 868              		.cfi_def_cfa_offset 12
 869              		@ sp needed
 870 0044 BDE83040 		pop	{r4, r5, lr}
 871              		.cfi_restore 14
 872              		.cfi_restore 5
 873              		.cfi_restore 4
 874              		.cfi_def_cfa_offset 0
 875              		.loc 1 167 0 discriminator 1
 876 0048 FFF7FEBF 		b	moving
 877              	.LVL84:
 878              	.L86:
 879              		.cfi_restore_state
 880              	.LBB59:
 881              	.LBB60:
 882              	.LBB61:
 883              	.LBB62:
 884              		.loc 1 32 0
 885 004c 224A     		ldr	r2, .L111+4
 886 004e 234D     		ldr	r5, .L111+8
 887 0050 1368     		ldr	r3, [r2]
 888 0052 43F23901 		movw	r1, #12345
 889              	.LVL85:
 890 0056 05FB0313 		mla	r3, r5, r3, r1
 891 005a 23F00041 		bic	r1, r3, #-2147483648
 892 005e 1160     		str	r1, [r2]
 893              	.LBE62:
 894              	.LBE61:
 895              	.LBE60:
 896              	.LBE59:
 897              		.loc 1 145 0
 898 0060 D907     		lsls	r1, r3, #31
 899 0062 08D4     		bmi	.L88
 900              	.L87:
 901              		.loc 1 155 0
 902 0064 019A     		ldr	r2, [sp, #4]
 903 0066 2368     		ldr	r3, [r4]
 904 0068 9A42     		cmp	r2, r3
 905 006a 0AD1     		bne	.L108
 906              	.LVL86:
 907              	.L107:
 908              		.loc 1 194 0
 909 006c 03B0     		add	sp, sp, #12
 910              		.cfi_remember_state
 911              		.cfi_def_cfa_offset 12
 912              		@ sp needed
ARM GAS  /tmp/cc9rahCR.s 			page 17


 913 006e BDE83040 		pop	{r4, r5, lr}
 914              		.cfi_restore 14
 915              		.cfi_restore 5
 916              		.cfi_restore 4
 917              		.cfi_def_cfa_offset 0
 918              		.loc 1 146 0
 919 0072 FFF7FEBF 		b	rotation
 920              	.LVL87:
 921              	.L88:
 922              		.cfi_restore_state
 923              		.loc 1 151 0
 924 0076 019A     		ldr	r2, [sp, #4]
 925 0078 2368     		ldr	r3, [r4]
 926 007a 9A42     		cmp	r2, r3
 927              		.loc 1 146 0
 928 007c 08BF     		it	eq
 929 007e 4042     		rsbeq	r0, r0, #0
 930              	.LVL88:
 931              		.loc 1 151 0
 932 0080 F4D0     		beq	.L107
 933              	.L108:
 934              		.loc 1 194 0
 935 0082 FFF7FEFF 		bl	__stack_chk_fail
 936              	.LVL89:
 937              	.L89:
 938              		.loc 1 159 0
 939 0086 019A     		ldr	r2, [sp, #4]
 940 0088 2368     		ldr	r3, [r4]
 941 008a 9A42     		cmp	r2, r3
 942 008c 08BF     		it	eq
 943 008e 4042     		rsbeq	r0, r0, #0
 944              	.LVL90:
 945 0090 D7D0     		beq	.L98
 946 0092 F6E7     		b	.L108
 947              	.LVL91:
 948              	.L85:
 949              	.LBB63:
 950              	.LBB64:
 951              	.LBB65:
 952              	.LBB66:
 953              		.loc 1 32 0
 954 0094 104A     		ldr	r2, .L111+4
 955 0096 114D     		ldr	r5, .L111+8
 956 0098 1368     		ldr	r3, [r2]
 957 009a 43F23901 		movw	r1, #12345
 958              	.LVL92:
 959 009e 05FB0313 		mla	r3, r5, r3, r1
 960 00a2 23F00041 		bic	r1, r3, #-2147483648
 961              	.LBE66:
 962              	.LBE65:
 963              	.LBE64:
 964              	.LBE63:
 965              		.loc 1 172 0
 966 00a6 DB07     		lsls	r3, r3, #31
 967              	.LBB70:
 968              	.LBB69:
 969              	.LBB68:
ARM GAS  /tmp/cc9rahCR.s 			page 18


 970              	.LBB67:
 971              		.loc 1 32 0
 972 00a8 1160     		str	r1, [r2]
 973              	.LBE67:
 974              	.LBE68:
 975              	.LBE69:
 976              	.LBE70:
 977              		.loc 1 172 0
 978 00aa C6D5     		bpl	.L99
 979 00ac DAE7     		b	.L87
 980              	.LVL93:
 981              	.L90:
 982              	.LBB71:
 983              	.LBB72:
 984              		.loc 1 332 0
 985 00ae 0020     		movs	r0, #0
 986              	.LVL94:
 987 00b0 FFF7FEFF 		bl	left_motor_set_speed
 988              	.LVL95:
 989              		.loc 1 333 0
 990 00b4 019A     		ldr	r2, [sp, #4]
 991 00b6 2368     		ldr	r3, [r4]
 992 00b8 9A42     		cmp	r2, r3
 993 00ba E2D1     		bne	.L108
 994 00bc 0020     		movs	r0, #0
 995              	.LBE72:
 996              	.LBE71:
 997              		.loc 1 194 0
 998 00be 03B0     		add	sp, sp, #12
 999              		.cfi_remember_state
 1000              		.cfi_def_cfa_offset 12
 1001              		@ sp needed
 1002 00c0 BDE83040 		pop	{r4, r5, lr}
 1003              		.cfi_restore 14
 1004              		.cfi_restore 5
 1005              		.cfi_restore 4
 1006              		.cfi_def_cfa_offset 0
 1007              	.LBB74:
 1008              	.LBB73:
 1009              		.loc 1 333 0
 1010 00c4 FFF7FEBF 		b	right_motor_set_speed
 1011              	.LVL96:
 1012              	.L80:
 1013              		.cfi_restore_state
 1014              	.LBE73:
 1015              	.LBE74:
 1016              		.loc 1 194 0
 1017 00c8 019A     		ldr	r2, [sp, #4]
 1018 00ca 2368     		ldr	r3, [r4]
 1019 00cc 9A42     		cmp	r2, r3
 1020 00ce D8D1     		bne	.L108
 1021 00d0 03B0     		add	sp, sp, #12
 1022              		.cfi_def_cfa_offset 12
 1023              		@ sp needed
 1024 00d2 30BD     		pop	{r4, r5, pc}
 1025              	.L112:
 1026              		.align	2
ARM GAS  /tmp/cc9rahCR.s 			page 19


 1027              	.L111:
 1028 00d4 00000000 		.word	__stack_chk_guard
 1029 00d8 00000000 		.word	.LANCHOR0
 1030 00dc ED469306 		.word	110315245
 1031              		.cfi_endproc
 1032              	.LFE261:
 1033              		.size	random_choice, .-random_choice
 1034              		.section	.text.move_time,"ax",%progbits
 1035              		.align	1
 1036              		.p2align 4,,15
 1037              		.global	move_time
 1038              		.syntax unified
 1039              		.thumb
 1040              		.thumb_func
 1041              		.fpu fpv4-sp-d16
 1042              		.type	move_time, %function
 1043              	move_time:
 1044              	.LFB269:
 1045              		.loc 1 360 0
 1046              		.cfi_startproc
 1047              		@ args = 0, pretend = 0, frame = 8
 1048              		@ frame_needed = 0, uses_anonymous_args = 0
 1049              	.LVL97:
 1050 0000 70B5     		push	{r4, r5, r6, lr}
 1051              		.cfi_def_cfa_offset 16
 1052              		.cfi_offset 4, -16
 1053              		.cfi_offset 5, -12
 1054              		.cfi_offset 6, -8
 1055              		.cfi_offset 14, -4
 1056 0002 134C     		ldr	r4, .L118
 1057 0004 82B0     		sub	sp, sp, #8
 1058              		.cfi_def_cfa_offset 24
 1059              		.loc 1 360 0
 1060 0006 2368     		ldr	r3, [r4]
 1061 0008 0193     		str	r3, [sp, #4]
 1062 000a 0646     		mov	r6, r0
 1063 000c 0D46     		mov	r5, r1
 1064              		.loc 1 361 0
 1065 000e FFF7FEFF 		bl	left_motor_set_speed
 1066              	.LVL98:
 1067              		.loc 1 362 0
 1068 0012 3046     		mov	r0, r6
 1069 0014 FFF7FEFF 		bl	right_motor_set_speed
 1070              	.LVL99:
 1071              		.loc 1 363 0
 1072 0018 4FF47A70 		mov	r0, #1000
 1073 001c 0D49     		ldr	r1, .L118+4
 1074 001e 00FB05F0 		mul	r0, r0, r5
 1075 0022 00F2E730 		addw	r0, r0, #999
 1076 0026 A1FB0030 		umull	r3, r0, r1, r0
 1077 002a 8009     		lsrs	r0, r0, #6
 1078 002c FFF7FEFF 		bl	chThdSleep
 1079              	.LVL100:
 1080              		.loc 1 364 0
 1081 0030 0020     		movs	r0, #0
 1082 0032 FFF7FEFF 		bl	left_motor_set_speed
 1083              	.LVL101:
ARM GAS  /tmp/cc9rahCR.s 			page 20


 1084              		.loc 1 365 0
 1085 0036 019A     		ldr	r2, [sp, #4]
 1086 0038 2368     		ldr	r3, [r4]
 1087 003a 9A42     		cmp	r2, r3
 1088 003c 05D1     		bne	.L117
 1089 003e 0020     		movs	r0, #0
 1090              		.loc 1 366 0
 1091 0040 02B0     		add	sp, sp, #8
 1092              		.cfi_remember_state
 1093              		.cfi_def_cfa_offset 16
 1094              		@ sp needed
 1095 0042 BDE87040 		pop	{r4, r5, r6, lr}
 1096              		.cfi_restore 14
 1097              		.cfi_restore 6
 1098              		.cfi_restore 5
 1099              		.cfi_restore 4
 1100              		.cfi_def_cfa_offset 0
 1101              	.LVL102:
 1102              		.loc 1 365 0
 1103 0046 FFF7FEBF 		b	right_motor_set_speed
 1104              	.LVL103:
 1105              	.L117:
 1106              		.cfi_restore_state
 1107 004a FFF7FEFF 		bl	__stack_chk_fail
 1108              	.LVL104:
 1109              	.L119:
 1110 004e 00BF     		.align	2
 1111              	.L118:
 1112 0050 00000000 		.word	__stack_chk_guard
 1113 0054 D34D6210 		.word	274877907
 1114              		.cfi_endproc
 1115              	.LFE269:
 1116              		.size	move_time, .-move_time
 1117              		.section	.text.rotate_angle,"ax",%progbits
 1118              		.align	1
 1119              		.p2align 4,,15
 1120              		.global	rotate_angle
 1121              		.syntax unified
 1122              		.thumb
 1123              		.thumb_func
 1124              		.fpu fpv4-sp-d16
 1125              		.type	rotate_angle, %function
 1126              	rotate_angle:
 1127              	.LFB270:
 1128              		.loc 1 371 0
 1129              		.cfi_startproc
 1130              		@ args = 0, pretend = 0, frame = 8
 1131              		@ frame_needed = 0, uses_anonymous_args = 0
 1132              	.LVL105:
 1133 0000 70B5     		push	{r4, r5, r6, lr}
 1134              		.cfi_def_cfa_offset 16
 1135              		.cfi_offset 4, -16
 1136              		.cfi_offset 5, -12
 1137              		.cfi_offset 6, -8
 1138              		.cfi_offset 14, -4
 1139 0002 144D     		ldr	r5, .L125
 1140 0004 82B0     		sub	sp, sp, #8
ARM GAS  /tmp/cc9rahCR.s 			page 21


 1141              		.cfi_def_cfa_offset 24
 1142              		.loc 1 371 0
 1143 0006 2B68     		ldr	r3, [r5]
 1144 0008 0193     		str	r3, [sp, #4]
 1145 000a 0646     		mov	r6, r0
 1146 000c 0C46     		mov	r4, r1
 1147              	.LVL106:
 1148              		.loc 1 373 0
 1149 000e FFF7FEFF 		bl	left_motor_set_speed
 1150              	.LVL107:
 1151              		.loc 1 374 0
 1152 0012 7042     		negs	r0, r6
 1153 0014 FFF7FEFF 		bl	right_motor_set_speed
 1154              	.LVL108:
 1155              		.loc 1 372 0
 1156 0018 94FBF6F1 		sdiv	r1, r4, r6
 1157              		.loc 1 375 0
 1158 001c 0E48     		ldr	r0, .L125+4
 1159 001e 0F4B     		ldr	r3, .L125+8
 1160              		.loc 1 372 0
 1161 0020 01EB4101 		add	r1, r1, r1, lsl #1
 1162              		.loc 1 375 0
 1163 0024 00FB01F0 		mul	r0, r0, r1
 1164 0028 00F2E730 		addw	r0, r0, #999
 1165 002c A3FB0030 		umull	r3, r0, r3, r0
 1166 0030 8009     		lsrs	r0, r0, #6
 1167 0032 FFF7FEFF 		bl	chThdSleep
 1168              	.LVL109:
 1169              		.loc 1 376 0
 1170 0036 0020     		movs	r0, #0
 1171 0038 FFF7FEFF 		bl	left_motor_set_speed
 1172              	.LVL110:
 1173              		.loc 1 377 0
 1174 003c 019A     		ldr	r2, [sp, #4]
 1175 003e 2B68     		ldr	r3, [r5]
 1176 0040 9A42     		cmp	r2, r3
 1177 0042 05D1     		bne	.L124
 1178 0044 0020     		movs	r0, #0
 1179              		.loc 1 378 0
 1180 0046 02B0     		add	sp, sp, #8
 1181              		.cfi_remember_state
 1182              		.cfi_def_cfa_offset 16
 1183              		@ sp needed
 1184 0048 BDE87040 		pop	{r4, r5, r6, lr}
 1185              		.cfi_restore 14
 1186              		.cfi_restore 6
 1187              		.cfi_restore 5
 1188              		.cfi_restore 4
 1189              		.cfi_def_cfa_offset 0
 1190              	.LVL111:
 1191              		.loc 1 377 0
 1192 004c FFF7FEBF 		b	right_motor_set_speed
 1193              	.LVL112:
 1194              	.L124:
 1195              		.cfi_restore_state
 1196 0050 FFF7FEFF 		bl	__stack_chk_fail
 1197              	.LVL113:
ARM GAS  /tmp/cc9rahCR.s 			page 22


 1198              	.L126:
 1199              		.align	2
 1200              	.L125:
 1201 0054 00000000 		.word	__stack_chk_guard
 1202 0058 40420F00 		.word	1000000
 1203 005c D34D6210 		.word	274877907
 1204              		.cfi_endproc
 1205              	.LFE270:
 1206              		.size	rotate_angle, .-rotate_angle
 1207              		.section	.text.FollowTarget,"ax",%progbits
 1208              		.align	1
 1209              		.p2align 4,,15
 1210              		.global	FollowTarget
 1211              		.syntax unified
 1212              		.thumb
 1213              		.thumb_func
 1214              		.fpu fpv4-sp-d16
 1215              		.type	FollowTarget, %function
 1216              	FollowTarget:
 1217              	.LFB262:
 1218              		.loc 1 196 0
 1219              		.cfi_startproc
 1220              		@ args = 0, pretend = 0, frame = 8
 1221              		@ frame_needed = 0, uses_anonymous_args = 0
 1222              	.LVL114:
 1223 0000 10B5     		push	{r4, lr}
 1224              		.cfi_def_cfa_offset 8
 1225              		.cfi_offset 4, -8
 1226              		.cfi_offset 14, -4
 1227 0002 334C     		ldr	r4, .L152
 1228 0004 82B0     		sub	sp, sp, #8
 1229              		.cfi_def_cfa_offset 16
 1230              		.loc 1 196 0
 1231 0006 2368     		ldr	r3, [r4]
 1232 0008 0193     		str	r3, [sp, #4]
 1233              		.loc 1 198 0
 1234 000a 0130     		adds	r0, r0, #1
 1235              	.LVL115:
 1236 000c 0628     		cmp	r0, #6
 1237 000e 0AD8     		bhi	.L127
 1238 0010 DFE800F0 		tbb	[pc, r0]
 1239              	.L130:
 1240 0014 1C       		.byte	(.L129-.L130)/2
 1241 0015 04       		.byte	(.L131-.L130)/2
 1242 0016 27       		.byte	(.L132-.L130)/2
 1243 0017 32       		.byte	(.L133-.L130)/2
 1244 0018 3A       		.byte	(.L134-.L130)/2
 1245 0019 45       		.byte	(.L135-.L130)/2
 1246 001a 0F       		.byte	(.L136-.L130)/2
 1247 001b 00       		.p2align 1
 1248              	.L131:
 1249              	.LVL116:
 1250              	.LBB77:
 1251              	.LBB78:
 1252              		.loc 1 202 0
 1253 001c 0020     		movs	r0, #0
 1254              	.LVL117:
ARM GAS  /tmp/cc9rahCR.s 			page 23


 1255 001e FFF7FEFF 		bl	get_calibrated_prox
 1256              	.LVL118:
 1257 0022 5928     		cmp	r0, #89
 1258 0024 42DD     		ble	.L151
 1259              	.LVL119:
 1260              	.L127:
 1261              	.LBE78:
 1262              	.LBE77:
 1263              		.loc 1 233 0
 1264 0026 019A     		ldr	r2, [sp, #4]
 1265 0028 2368     		ldr	r3, [r4]
 1266 002a 9A42     		cmp	r2, r3
 1267 002c 2AD1     		bne	.L149
 1268 002e 02B0     		add	sp, sp, #8
 1269              		.cfi_remember_state
 1270              		.cfi_def_cfa_offset 8
 1271              		@ sp needed
 1272 0030 10BD     		pop	{r4, pc}
 1273              	.L136:
 1274              		.cfi_restore_state
 1275              		.loc 1 225 0
 1276 0032 019A     		ldr	r2, [sp, #4]
 1277 0034 2368     		ldr	r3, [r4]
 1278 0036 9A42     		cmp	r2, r3
 1279 0038 08BF     		it	eq
 1280 003a B421     		moveq	r1, #180
 1281 003c 22D1     		bne	.L149
 1282              	.L150:
 1283              		.loc 1 213 0
 1284 003e 4FF49670 		mov	r0, #300
 1285              		.loc 1 233 0
 1286 0042 02B0     		add	sp, sp, #8
 1287              		.cfi_remember_state
 1288              		.cfi_def_cfa_offset 8
 1289              		@ sp needed
 1290 0044 BDE81040 		pop	{r4, lr}
 1291              		.cfi_restore 14
 1292              		.cfi_restore 4
 1293              		.cfi_def_cfa_offset 0
 1294              		.loc 1 213 0
 1295 0048 FFF7FEBF 		b	rotate_angle
 1296              	.LVL120:
 1297              	.L129:
 1298              		.cfi_restore_state
 1299              		.loc 1 228 0
 1300 004c 019A     		ldr	r2, [sp, #4]
 1301 004e 2368     		ldr	r3, [r4]
 1302 0050 9A42     		cmp	r2, r3
 1303 0052 17D1     		bne	.L149
 1304 0054 4FF49670 		mov	r0, #300
 1305              		.loc 1 233 0
 1306 0058 02B0     		add	sp, sp, #8
 1307              		.cfi_remember_state
 1308              		.cfi_def_cfa_offset 8
 1309              		@ sp needed
 1310 005a BDE81040 		pop	{r4, lr}
 1311              		.cfi_restore 14
ARM GAS  /tmp/cc9rahCR.s 			page 24


 1312              		.cfi_restore 4
 1313              		.cfi_def_cfa_offset 0
 1314              		.loc 1 228 0
 1315 005e FFF7FEBF 		b	FindTarget_TOF
 1316              	.LVL121:
 1317              	.L132:
 1318              		.cfi_restore_state
 1319              		.loc 1 209 0
 1320 0062 019A     		ldr	r2, [sp, #4]
 1321 0064 2368     		ldr	r3, [r4]
 1322 0066 9A42     		cmp	r2, r3
 1323 0068 0CD1     		bne	.L149
 1324 006a 1A48     		ldr	r0, .L152+4
 1325 006c 2821     		movs	r1, #40
 1326              		.loc 1 233 0
 1327 006e 02B0     		add	sp, sp, #8
 1328              		.cfi_remember_state
 1329              		.cfi_def_cfa_offset 8
 1330              		@ sp needed
 1331 0070 BDE81040 		pop	{r4, lr}
 1332              		.cfi_restore 14
 1333              		.cfi_restore 4
 1334              		.cfi_def_cfa_offset 0
 1335              		.loc 1 213 0
 1336 0074 FFF7FEBF 		b	rotate_angle
 1337              	.LVL122:
 1338              	.L133:
 1339              		.cfi_restore_state
 1340 0078 019A     		ldr	r2, [sp, #4]
 1341 007a 2368     		ldr	r3, [r4]
 1342 007c 9A42     		cmp	r2, r3
 1343 007e 08BF     		it	eq
 1344 0080 2821     		moveq	r1, #40
 1345 0082 DCD0     		beq	.L150
 1346              	.L149:
 1347              		.loc 1 233 0
 1348 0084 FFF7FEFF 		bl	__stack_chk_fail
 1349              	.LVL123:
 1350              	.L134:
 1351              		.loc 1 217 0
 1352 0088 019A     		ldr	r2, [sp, #4]
 1353 008a 2368     		ldr	r3, [r4]
 1354 008c 9A42     		cmp	r2, r3
 1355 008e F9D1     		bne	.L149
 1356 0090 1048     		ldr	r0, .L152+4
 1357 0092 5A21     		movs	r1, #90
 1358              		.loc 1 233 0
 1359 0094 02B0     		add	sp, sp, #8
 1360              		.cfi_remember_state
 1361              		.cfi_def_cfa_offset 8
 1362              		@ sp needed
 1363 0096 BDE81040 		pop	{r4, lr}
 1364              		.cfi_restore 14
 1365              		.cfi_restore 4
 1366              		.cfi_def_cfa_offset 0
 1367              		.loc 1 213 0
 1368 009a FFF7FEBF 		b	rotate_angle
ARM GAS  /tmp/cc9rahCR.s 			page 25


 1369              	.LVL124:
 1370              	.L135:
 1371              		.cfi_restore_state
 1372              		.loc 1 221 0
 1373 009e 019A     		ldr	r2, [sp, #4]
 1374 00a0 2368     		ldr	r3, [r4]
 1375 00a2 9A42     		cmp	r2, r3
 1376 00a4 08BF     		it	eq
 1377 00a6 5A21     		moveq	r1, #90
 1378 00a8 C9D0     		beq	.L150
 1379 00aa EBE7     		b	.L149
 1380              	.LVL125:
 1381              	.L151:
 1382              	.LBB81:
 1383              	.LBB79:
 1384              		.loc 1 202 0
 1385 00ac 0720     		movs	r0, #7
 1386 00ae FFF7FEFF 		bl	get_calibrated_prox
 1387              	.LVL126:
 1388 00b2 5928     		cmp	r0, #89
 1389 00b4 B7DC     		bgt	.L127
 1390              		.loc 1 204 0
 1391 00b6 019A     		ldr	r2, [sp, #4]
 1392 00b8 2368     		ldr	r3, [r4]
 1393 00ba 9A42     		cmp	r2, r3
 1394 00bc E2D1     		bne	.L149
 1395 00be 4FF4FA71 		mov	r1, #500
 1396 00c2 4FF49670 		mov	r0, #300
 1397              	.LBE79:
 1398              	.LBE81:
 1399              		.loc 1 233 0
 1400 00c6 02B0     		add	sp, sp, #8
 1401              		.cfi_def_cfa_offset 8
 1402              		@ sp needed
 1403 00c8 BDE81040 		pop	{r4, lr}
 1404              		.cfi_restore 14
 1405              		.cfi_restore 4
 1406              		.cfi_def_cfa_offset 0
 1407              	.LBB82:
 1408              	.LBB80:
 1409              		.loc 1 204 0
 1410 00cc FFF7FEBF 		b	move_time
 1411              	.LVL127:
 1412              	.L153:
 1413              		.align	2
 1414              	.L152:
 1415 00d0 00000000 		.word	__stack_chk_guard
 1416 00d4 D4FEFFFF 		.word	-300
 1417              	.LBE80:
 1418              	.LBE82:
 1419              		.cfi_endproc
 1420              	.LFE262:
 1421              		.size	FollowTarget, .-FollowTarget
 1422              		.section	.text.gamble,"ax",%progbits
 1423              		.align	1
 1424              		.p2align 4,,15
 1425              		.global	gamble
ARM GAS  /tmp/cc9rahCR.s 			page 26


 1426              		.syntax unified
 1427              		.thumb
 1428              		.thumb_func
 1429              		.fpu fpv4-sp-d16
 1430              		.type	gamble, %function
 1431              	gamble:
 1432              	.LFB271:
 1433              		.loc 1 380 0
 1434              		.cfi_startproc
 1435              		@ args = 0, pretend = 0, frame = 8
 1436              		@ frame_needed = 0, uses_anonymous_args = 0
 1437 0000 10B5     		push	{r4, lr}
 1438              		.cfi_def_cfa_offset 8
 1439              		.cfi_offset 4, -8
 1440              		.cfi_offset 14, -4
 1441              	.LBB83:
 1442              	.LBB84:
 1443              		.loc 1 32 0
 1444 0002 0C4B     		ldr	r3, .L158
 1445              	.LBE84:
 1446              	.LBE83:
 1447              		.loc 1 380 0
 1448 0004 0C4A     		ldr	r2, .L158+4
 1449              	.LBB90:
 1450              	.LBB85:
 1451              		.loc 1 32 0
 1452 0006 1868     		ldr	r0, [r3]
 1453              	.LBE85:
 1454              	.LBE90:
 1455              		.loc 1 380 0
 1456 0008 1168     		ldr	r1, [r2]
 1457              	.LBB91:
 1458              	.LBB86:
 1459              		.loc 1 32 0
 1460 000a 0C4C     		ldr	r4, .L158+8
 1461              	.LBE86:
 1462              	.LBE91:
 1463              		.loc 1 380 0
 1464 000c 82B0     		sub	sp, sp, #8
 1465              		.cfi_def_cfa_offset 16
 1466              		.loc 1 380 0
 1467 000e 0191     		str	r1, [sp, #4]
 1468              	.LBB92:
 1469              	.LBB87:
 1470              		.loc 1 32 0
 1471 0010 43F23901 		movw	r1, #12345
 1472 0014 04FB0010 		mla	r0, r4, r0, r1
 1473              	.LBE87:
 1474              	.LBE92:
 1475              		.loc 1 383 0
 1476 0018 0199     		ldr	r1, [sp, #4]
 1477 001a 1268     		ldr	r2, [r2]
 1478              	.LBB93:
 1479              	.LBB88:
 1480              		.loc 1 32 0
 1481 001c 20F00040 		bic	r0, r0, #-2147483648
 1482              	.LBE88:
ARM GAS  /tmp/cc9rahCR.s 			page 27


 1483              	.LBE93:
 1484              		.loc 1 383 0
 1485 0020 9142     		cmp	r1, r2
 1486              	.LBB94:
 1487              	.LBB89:
 1488              		.loc 1 32 0
 1489 0022 1860     		str	r0, [r3]
 1490              	.LBE89:
 1491              	.LBE94:
 1492              		.loc 1 383 0
 1493 0024 04D1     		bne	.L157
 1494 0026 C043     		mvns	r0, r0
 1495 0028 00F00100 		and	r0, r0, #1
 1496 002c 02B0     		add	sp, sp, #8
 1497              		.cfi_remember_state
 1498              		.cfi_def_cfa_offset 8
 1499              		@ sp needed
 1500 002e 10BD     		pop	{r4, pc}
 1501              	.L157:
 1502              		.cfi_restore_state
 1503 0030 FFF7FEFF 		bl	__stack_chk_fail
 1504              	.LVL128:
 1505              	.L159:
 1506              		.align	2
 1507              	.L158:
 1508 0034 00000000 		.word	.LANCHOR0
 1509 0038 00000000 		.word	__stack_chk_guard
 1510 003c ED469306 		.word	110315245
 1511              		.cfi_endproc
 1512              	.LFE271:
 1513              		.size	gamble, .-gamble
 1514              		.section	.text.check_walls,"ax",%progbits
 1515              		.align	1
 1516              		.p2align 4,,15
 1517              		.global	check_walls
 1518              		.syntax unified
 1519              		.thumb
 1520              		.thumb_func
 1521              		.fpu fpv4-sp-d16
 1522              		.type	check_walls, %function
 1523              	check_walls:
 1524              	.LFB272:
 1525              		.loc 1 385 0
 1526              		.cfi_startproc
 1527              		@ args = 0, pretend = 0, frame = 8
 1528              		@ frame_needed = 0, uses_anonymous_args = 0
 1529              	.LVL129:
 1530 0000 00B5     		push	{lr}
 1531              		.cfi_def_cfa_offset 4
 1532              		.cfi_offset 14, -4
 1533 0002 1C4A     		ldr	r2, .L176
 1534              		.loc 1 389 0
 1535 0004 0168     		ldr	r1, [r0]
 1536              		.loc 1 385 0
 1537 0006 83B0     		sub	sp, sp, #12
 1538              		.cfi_def_cfa_offset 16
 1539              		.loc 1 385 0
ARM GAS  /tmp/cc9rahCR.s 			page 28


 1540 0008 0346     		mov	r3, r0
 1541              		.loc 1 389 0
 1542 000a 5029     		cmp	r1, #80
 1543              		.loc 1 385 0
 1544 000c 1068     		ldr	r0, [r2]
 1545              	.LVL130:
 1546 000e 0190     		str	r0, [sp, #4]
 1547              	.LVL131:
 1548              		.loc 1 389 0
 1549 0010 02DC     		bgt	.L171
 1550              		.loc 1 389 0 is_stmt 0 discriminator 2
 1551 0012 D969     		ldr	r1, [r3, #28]
 1552 0014 5029     		cmp	r1, #80
 1553 0016 22DD     		ble	.L174
 1554              	.L171:
 1555              		.loc 1 389 0
 1556 0018 0820     		movs	r0, #8
 1557              	.L161:
 1558              	.LVL132:
 1559              		.loc 1 391 0 is_stmt 1
 1560 001a 5969     		ldr	r1, [r3, #20]
 1561 001c B1F5967F 		cmp	r1, #300
 1562 0020 1BDC     		bgt	.L162
 1563              		.loc 1 391 0 is_stmt 0 discriminator 2
 1564 0022 9969     		ldr	r1, [r3, #24]
 1565 0024 B1F5967F 		cmp	r1, #300
 1566 0028 17DC     		bgt	.L162
 1567              	.L163:
 1568              		.loc 1 393 0 is_stmt 1
 1569 002a 9968     		ldr	r1, [r3, #8]
 1570 002c B1F5967F 		cmp	r1, #300
 1571 0030 11DC     		bgt	.L164
 1572              		.loc 1 393 0 is_stmt 0 discriminator 2
 1573 0032 5968     		ldr	r1, [r3, #4]
 1574 0034 B1F5967F 		cmp	r1, #300
 1575 0038 0DDC     		bgt	.L164
 1576              	.L165:
 1577              		.loc 1 395 0 is_stmt 1
 1578 003a D968     		ldr	r1, [r3, #12]
 1579 003c 6429     		cmp	r1, #100
 1580 003e 02DC     		bgt	.L166
 1581              		.loc 1 395 0 is_stmt 0 discriminator 2
 1582 0040 1B69     		ldr	r3, [r3, #16]
 1583              	.LVL133:
 1584 0042 FA2B     		cmp	r3, #250
 1585 0044 00DD     		ble	.L160
 1586              	.L166:
 1587              		.loc 1 395 0 discriminator 3
 1588 0046 0130     		adds	r0, r0, #1
 1589              	.LVL134:
 1590              	.L160:
 1591              		.loc 1 398 0 is_stmt 1
 1592 0048 0199     		ldr	r1, [sp, #4]
 1593 004a 1368     		ldr	r3, [r2]
 1594 004c 9942     		cmp	r1, r3
 1595 004e 0FD1     		bne	.L175
 1596 0050 03B0     		add	sp, sp, #12
ARM GAS  /tmp/cc9rahCR.s 			page 29


 1597              		.cfi_remember_state
 1598              		.cfi_def_cfa_offset 4
 1599              		@ sp needed
 1600 0052 5DF804FB 		ldr	pc, [sp], #4
 1601              	.LVL135:
 1602              	.L164:
 1603              		.cfi_restore_state
 1604              		.loc 1 393 0 discriminator 3
 1605 0056 0230     		adds	r0, r0, #2
 1606              	.LVL136:
 1607 0058 EFE7     		b	.L165
 1608              	.L162:
 1609              		.loc 1 391 0 discriminator 3
 1610 005a 0430     		adds	r0, r0, #4
 1611              	.LVL137:
 1612 005c E5E7     		b	.L163
 1613              	.LVL138:
 1614              	.L174:
 1615              		.loc 1 389 0 discriminator 4
 1616 005e 5968     		ldr	r1, [r3, #4]
 1617 0060 C829     		cmp	r1, #200
 1618 0062 D9DC     		bgt	.L171
 1619              		.loc 1 389 0 is_stmt 0 discriminator 6
 1620 0064 9969     		ldr	r1, [r3, #24]
 1621 0066 C829     		cmp	r1, #200
 1622              		.loc 1 387 0 is_stmt 1 discriminator 6
 1623 0068 CCBF     		ite	gt
 1624 006a 0820     		movgt	r0, #8
 1625 006c 0020     		movle	r0, #0
 1626 006e D4E7     		b	.L161
 1627              	.LVL139:
 1628              	.L175:
 1629              		.loc 1 398 0
 1630 0070 FFF7FEFF 		bl	__stack_chk_fail
 1631              	.LVL140:
 1632              	.L177:
 1633              		.align	2
 1634              	.L176:
 1635 0074 00000000 		.word	__stack_chk_guard
 1636              		.cfi_endproc
 1637              	.LFE272:
 1638              		.size	check_walls, .-check_walls
 1639              		.section	.text.startup.main,"ax",%progbits
 1640              		.align	1
 1641              		.p2align 4,,15
 1642              		.global	main
 1643              		.syntax unified
 1644              		.thumb
 1645              		.thumb_func
 1646              		.fpu fpv4-sp-d16
 1647              		.type	main, %function
 1648              	main:
 1649              	.LFB260:
 1650              		.loc 1 61 0
 1651              		.cfi_startproc
 1652              		@ args = 0, pretend = 0, frame = 136
 1653              		@ frame_needed = 0, uses_anonymous_args = 0
ARM GAS  /tmp/cc9rahCR.s 			page 30


 1654 0000 2DE9F041 		push	{r4, r5, r6, r7, r8, lr}
 1655              		.cfi_def_cfa_offset 24
 1656              		.cfi_offset 4, -24
 1657              		.cfi_offset 5, -20
 1658              		.cfi_offset 6, -16
 1659              		.cfi_offset 7, -12
 1660              		.cfi_offset 8, -8
 1661              		.cfi_offset 14, -4
 1662 0004 4A4B     		ldr	r3, .L197
 1663              	.LBB95:
 1664              		.loc 1 106 0
 1665 0006 4B4F     		ldr	r7, .L197+4
 1666              	.LBE95:
 1667              		.loc 1 61 0
 1668 0008 1B68     		ldr	r3, [r3]
 1669              		.loc 1 110 0
 1670 000a DFF83C81 		ldr	r8, .L197+24
 1671              		.loc 1 61 0
 1672 000e A2B0     		sub	sp, sp, #136
 1673              		.cfi_def_cfa_offset 160
 1674              		.loc 1 77 0
 1675 0010 08AC     		add	r4, sp, #32
 1676              		.loc 1 61 0
 1677 0012 2193     		str	r3, [sp, #132]
 1678              		.loc 1 63 0
 1679 0014 FFF7FEFF 		bl	halInit
 1680              	.LVL141:
 1681              		.loc 1 64 0
 1682 0018 FFF7FEFF 		bl	chSysInit
 1683              	.LVL142:
 1684              		.loc 1 65 0
 1685 001c FFF7FEFF 		bl	mpu_init
 1686              	.LVL143:
 1687              		.loc 1 67 0
 1688 0020 FFF7FEFF 		bl	motors_init
 1689              	.LVL144:
 1690              		.loc 1 69 0
 1691 0024 FFF7FEFF 		bl	clear_leds
 1692              	.LVL145:
 1693              		.loc 1 70 0
 1694 0028 FFF7FEFF 		bl	spi_comm_start
 1695              	.LVL146:
 1696              		.loc 1 73 0
 1697 002c FFF7FEFF 		bl	serial_start
 1698              	.LVL147:
 1699              		.loc 1 77 0
 1700 0030 414B     		ldr	r3, .L197+8
 1701 0032 0FCB     		ldm	r3, {r0, r1, r2, r3}
 1702 0034 07C4     		stmia	r4!, {r0, r1, r2}
 1703              		.loc 1 78 0
 1704 0036 08A8     		add	r0, sp, #32
 1705              		.loc 1 77 0
 1706 0038 2370     		strb	r3, [r4]
 1707              	.LVL148:
 1708              		.loc 1 78 0
 1709 003a 0C21     		movs	r1, #12
 1710 003c FFF7FEFF 		bl	e_send_uart1_char
ARM GAS  /tmp/cc9rahCR.s 			page 31


 1711              	.LVL149:
 1712              		.loc 1 81 0
 1713 0040 3E4A     		ldr	r2, .L197+12
 1714 0042 3F49     		ldr	r1, .L197+16
 1715 0044 3F48     		ldr	r0, .L197+20
 1716 0046 FFF7FEFF 		bl	messagebus_init
 1717              	.LVL150:
 1718              		.loc 1 82 0
 1719 004a FFF7FEFF 		bl	proximity_start
 1720              	.LVL151:
 1721              		.loc 1 83 0
 1722 004e FFF7FEFF 		bl	calibrate_ir
 1723              	.LVL152:
 1724              		.loc 1 86 0
 1725 0052 FFF7FEFF 		bl	VL53L0X_start
 1726              	.LVL153:
 1727              		.loc 1 93 0
 1728 0056 FFF7FEFF 		bl	get_selector
 1729              	.LVL154:
 1730              	.L189:
 1731 005a ADF10406 		sub	r6, sp, #4
 1732              	.LBB96:
 1733              		.loc 1 102 0
 1734 005e 0024     		movs	r4, #0
 1735              	.LVL155:
 1736              	.L179:
 1737              		.loc 1 104 0 discriminator 3
 1738 0060 2046     		mov	r0, r4
 1739 0062 FFF7FEFF 		bl	get_calibrated_prox
 1740              	.LVL156:
 1741              		.loc 1 106 0 discriminator 3
 1742 0066 2246     		mov	r2, r4
 1743 0068 0346     		mov	r3, r0
 1744              		.loc 1 104 0 discriminator 3
 1745 006a 0546     		mov	r5, r0
 1746              		.loc 1 106 0 discriminator 3
 1747 006c 3946     		mov	r1, r7
 1748 006e 08A8     		add	r0, sp, #32
 1749              		.loc 1 104 0 discriminator 3
 1750 0070 46F8045F 		str	r5, [r6, #4]!
 1751              		.loc 1 106 0 discriminator 3
 1752 0074 FFF7FEFF 		bl	sprintf
 1753              	.LVL157:
 1754              		.loc 1 102 0 discriminator 3
 1755 0078 0134     		adds	r4, r4, #1
 1756              	.LVL158:
 1757              		.loc 1 107 0 discriminator 3
 1758 007a 0146     		mov	r1, r0
 1759 007c 08A8     		add	r0, sp, #32
 1760              	.LVL159:
 1761 007e FFF7FEFF 		bl	e_send_uart1_char
 1762              	.LVL160:
 1763              		.loc 1 102 0 discriminator 3
 1764 0082 082C     		cmp	r4, #8
 1765 0084 ECD1     		bne	.L179
 1766              	.LBE96:
 1767              		.loc 1 109 0
ARM GAS  /tmp/cc9rahCR.s 			page 32


 1768 0086 6846     		mov	r0, sp
 1769 0088 FFF7FEFF 		bl	check_walls
 1770              	.LVL161:
 1771              		.loc 1 110 0
 1772 008c 4146     		mov	r1, r8
 1773 008e 0246     		mov	r2, r0
 1774              		.loc 1 109 0
 1775 0090 0446     		mov	r4, r0
 1776              	.LVL162:
 1777              		.loc 1 110 0
 1778 0092 08A8     		add	r0, sp, #32
 1779              	.LVL163:
 1780 0094 FFF7FEFF 		bl	sprintf
 1781              	.LVL164:
 1782              		.loc 1 111 0
 1783 0098 0146     		mov	r1, r0
 1784 009a 08A8     		add	r0, sp, #32
 1785              	.LVL165:
 1786 009c FFF7FEFF 		bl	e_send_uart1_char
 1787              	.LVL166:
 1788              	.LBB97:
 1789              	.LBB98:
 1790              		.loc 1 404 0
 1791 00a0 FFF7FEFF 		bl	VL53L0X_get_dist_mm
 1792              	.LVL167:
 1793              		.loc 1 405 0
 1794 00a4 1038     		subs	r0, r0, #16
 1795              	.LVL168:
 1796 00a6 80B2     		uxth	r0, r0
 1797 00a8 0828     		cmp	r0, #8
 1798 00aa 28D8     		bhi	.L196
 1799              	.LVL169:
 1800              	.LBE98:
 1801              	.LBE97:
 1802              		.loc 1 113 0
 1803 00ac FFF7FEFF 		bl	get_selector
 1804              	.LVL170:
 1805              		.loc 1 114 0
 1806 00b0 0138     		subs	r0, r0, #1
 1807              	.LVL171:
 1808 00b2 0328     		cmp	r0, #3
 1809 00b4 03D8     		bhi	.L186
 1810 00b6 DFE800F0 		tbb	[pc, r0]
 1811              	.L190:
 1812 00ba 1C       		.byte	(.L182-.L190)/2
 1813 00bb 16       		.byte	(.L184-.L190)/2
 1814 00bc 0C       		.byte	(.L185-.L190)/2
 1815 00bd 02       		.byte	(.L186-.L190)/2
 1816              	.LVL172:
 1817              		.p2align 1
 1818              	.L186:
 1819              	.LBB99:
 1820              	.LBB100:
 1821              		.loc 1 332 0
 1822 00be 0020     		movs	r0, #0
 1823 00c0 FFF7FEFF 		bl	left_motor_set_speed
 1824              	.LVL173:
ARM GAS  /tmp/cc9rahCR.s 			page 33


 1825              		.loc 1 333 0
 1826 00c4 0020     		movs	r0, #0
 1827 00c6 FFF7FEFF 		bl	right_motor_set_speed
 1828              	.LVL174:
 1829              	.L183:
 1830              	.LBE100:
 1831              	.LBE99:
 1832              		.loc 1 137 0
 1833 00ca 6420     		movs	r0, #100
 1834 00cc FFF7FEFF 		bl	chThdSleep
 1835              	.LVL175:
 1836              		.loc 1 102 0
 1837 00d0 C3E7     		b	.L189
 1838              	.L185:
 1839              		.loc 1 122 0
 1840 00d2 B421     		movs	r1, #180
 1841 00d4 4FF49670 		mov	r0, #300
 1842 00d8 FFF7FEFF 		bl	rotate_angle
 1843              	.LVL176:
 1844              		.loc 1 123 0
 1845 00dc 40F6B830 		movw	r0, #3000
 1846 00e0 FFF7FEFF 		bl	chThdSleep
 1847              	.LVL177:
 1848              		.loc 1 124 0
 1849 00e4 F1E7     		b	.L183
 1850              	.L184:
 1851              		.loc 1 119 0
 1852 00e6 6846     		mov	r0, sp
 1853 00e8 FFF7FEFF 		bl	GetTargetLocation
 1854              	.LVL178:
 1855 00ec FFF7FEFF 		bl	FollowTarget
 1856              	.LVL179:
 1857              		.loc 1 120 0
 1858 00f0 EBE7     		b	.L183
 1859              	.L182:
 1860              		.loc 1 116 0
 1861 00f2 2146     		mov	r1, r4
 1862 00f4 4FF49670 		mov	r0, #300
 1863 00f8 FFF7FEFF 		bl	random_choice
 1864              	.LVL180:
 1865              		.loc 1 117 0
 1866 00fc E5E7     		b	.L183
 1867              	.L196:
 1868              	.LVL181:
 1869              		.loc 1 113 0
 1870 00fe FFF7FEFF 		bl	get_selector
 1871              	.LVL182:
 1872              		.loc 1 114 0
 1873 0102 0138     		subs	r0, r0, #1
 1874              	.LVL183:
 1875 0104 0328     		cmp	r0, #3
 1876 0106 DAD8     		bhi	.L186
 1877 0108 01A3     		adr	r3, .L191
 1878 010a 53F820F0 		ldr	pc, [r3, r0, lsl #2]
 1879 010e 00BF     		.p2align 2
 1880              	.L191:
 1881 0110 F3000000 		.word	.L182+1
ARM GAS  /tmp/cc9rahCR.s 			page 34


 1882 0114 E7000000 		.word	.L184+1
 1883 0118 D3000000 		.word	.L185+1
 1884 011c 21010000 		.word	.L187+1
 1885              		.p2align 1
 1886              	.L187:
 1887              		.loc 1 129 0
 1888 0120 6846     		mov	r0, sp
 1889              	.LVL184:
 1890 0122 FFF7FEFF 		bl	GetTargetLocation
 1891              	.LVL185:
 1892 0126 4FF49671 		mov	r1, #300
 1893 012a FFF7FEFF 		bl	FollowTarget2
 1894              	.LVL186:
 1895 012e CCE7     		b	.L183
 1896              	.L198:
 1897              		.align	2
 1898              	.L197:
 1899 0130 00000000 		.word	__stack_chk_guard
 1900 0134 10000000 		.word	.LC2
 1901 0138 00000000 		.word	.LC1
 1902 013c 00000000 		.word	.LANCHOR1
 1903 0140 00000000 		.word	.LANCHOR2
 1904 0144 00000000 		.word	.LANCHOR3
 1905 0148 28000000 		.word	.LC3
 1906              		.cfi_endproc
 1907              	.LFE260:
 1908              		.size	main, .-main
 1909              		.section	.text.check_cylindar,"ax",%progbits
 1910              		.align	1
 1911              		.p2align 4,,15
 1912              		.global	check_cylindar
 1913              		.syntax unified
 1914              		.thumb
 1915              		.thumb_func
 1916              		.fpu fpv4-sp-d16
 1917              		.type	check_cylindar, %function
 1918              	check_cylindar:
 1919              	.LFB273:
 1920              		.loc 1 400 0
 1921              		.cfi_startproc
 1922              		@ args = 0, pretend = 0, frame = 8
 1923              		@ frame_needed = 0, uses_anonymous_args = 0
 1924 0000 10B5     		push	{r4, lr}
 1925              		.cfi_def_cfa_offset 8
 1926              		.cfi_offset 4, -8
 1927              		.cfi_offset 14, -4
 1928 0002 0A4C     		ldr	r4, .L203
 1929 0004 82B0     		sub	sp, sp, #8
 1930              		.cfi_def_cfa_offset 16
 1931              		.loc 1 400 0
 1932 0006 2368     		ldr	r3, [r4]
 1933 0008 0193     		str	r3, [sp, #4]
 1934              	.LVL187:
 1935              		.loc 1 404 0
 1936 000a FFF7FEFF 		bl	VL53L0X_get_dist_mm
 1937              	.LVL188:
 1938              		.loc 1 405 0
ARM GAS  /tmp/cc9rahCR.s 			page 35


 1939 000e 1038     		subs	r0, r0, #16
 1940              	.LVL189:
 1941 0010 80B2     		uxth	r0, r0
 1942              		.loc 1 407 0
 1943 0012 019A     		ldr	r2, [sp, #4]
 1944 0014 2368     		ldr	r3, [r4]
 1945 0016 0828     		cmp	r0, #8
 1946 0018 8CBF     		ite	hi
 1947 001a 0020     		movhi	r0, #0
 1948 001c 0120     		movls	r0, #1
 1949 001e 9A42     		cmp	r2, r3
 1950 0020 01D1     		bne	.L202
 1951 0022 02B0     		add	sp, sp, #8
 1952              		.cfi_remember_state
 1953              		.cfi_def_cfa_offset 8
 1954              		@ sp needed
 1955 0024 10BD     		pop	{r4, pc}
 1956              	.L202:
 1957              		.cfi_restore_state
 1958 0026 FFF7FEFF 		bl	__stack_chk_fail
 1959              	.LVL190:
 1960              	.L204:
 1961 002a 00BF     		.align	2
 1962              	.L203:
 1963 002c 00000000 		.word	__stack_chk_guard
 1964              		.cfi_endproc
 1965              	.LFE273:
 1966              		.size	check_cylindar, .-check_cylindar
 1967              		.section	.text.__stack_chk_fail,"ax",%progbits
 1968              		.align	1
 1969              		.p2align 4,,15
 1970              		.global	__stack_chk_fail
 1971              		.syntax unified
 1972              		.thumb
 1973              		.thumb_func
 1974              		.fpu fpv4-sp-d16
 1975              		.type	__stack_chk_fail, %function
 1976              	__stack_chk_fail:
 1977              	.LFB274:
 1978              		.loc 1 413 0
 1979              		.cfi_startproc
 1980              		@ args = 0, pretend = 0, frame = 8
 1981              		@ frame_needed = 0, uses_anonymous_args = 0
 1982 0000 00B5     		push	{lr}
 1983              		.cfi_def_cfa_offset 4
 1984              		.cfi_offset 14, -4
 1985 0002 084B     		ldr	r3, .L210
 1986 0004 83B0     		sub	sp, sp, #12
 1987              		.cfi_def_cfa_offset 16
 1988              		.loc 1 413 0
 1989 0006 1A68     		ldr	r2, [r3]
 1990 0008 0192     		str	r2, [sp, #4]
 1991              		.loc 1 414 0
 1992 000a 019A     		ldr	r2, [sp, #4]
 1993 000c 1B68     		ldr	r3, [r3]
 1994 000e 9A42     		cmp	r2, r3
 1995 0010 05D1     		bne	.L209
ARM GAS  /tmp/cc9rahCR.s 			page 36


 1996 0012 0548     		ldr	r0, .L210+4
 1997              		.loc 1 415 0
 1998 0014 03B0     		add	sp, sp, #12
 1999              		.cfi_remember_state
 2000              		.cfi_def_cfa_offset 4
 2001              		@ sp needed
 2002 0016 5DF804EB 		ldr	lr, [sp], #4
 2003              		.cfi_restore 14
 2004              		.cfi_def_cfa_offset 0
 2005              		.loc 1 414 0
 2006 001a FFF7FEBF 		b	chSysHalt
 2007              	.LVL191:
 2008              	.L209:
 2009              		.cfi_restore_state
 2010 001e FFF7FEFF 		bl	__stack_chk_fail
 2011              	.LVL192:
 2012              	.L211:
 2013 0022 00BF     		.align	2
 2014              	.L210:
 2015 0024 00000000 		.word	__stack_chk_guard
 2016 0028 00000000 		.word	.LC4
 2017              		.cfi_endproc
 2018              	.LFE274:
 2019              		.size	__stack_chk_fail, .-__stack_chk_fail
 2020              		.global	__stack_chk_guard
 2021              		.global	rseed
 2022              		.global	bus_condvar
 2023              		.global	bus_lock
 2024              		.global	bus
 2025              		.section	.bss.bus,"aw",%nobits
 2026              		.align	2
 2027              		.set	.LANCHOR3,. + 0
 2028              		.type	bus, %object
 2029              		.size	bus, 12
 2030              	bus:
 2031 0000 00000000 		.space	12
 2031      00000000 
 2031      00000000 
 2032              		.section	.bss.rseed,"aw",%nobits
 2033              		.align	2
 2034              		.set	.LANCHOR0,. + 0
 2035              		.type	rseed, %object
 2036              		.size	rseed, 4
 2037              	rseed:
 2038 0000 00000000 		.space	4
 2039              		.section	.data.__stack_chk_guard,"aw",%progbits
 2040              		.align	2
 2041              		.type	__stack_chk_guard, %object
 2042              		.size	__stack_chk_guard, 4
 2043              	__stack_chk_guard:
 2044 0000 96E3DEE2 		.word	-488709226
 2045              		.section	.data.bus_condvar,"aw",%progbits
 2046              		.align	2
 2047              		.set	.LANCHOR1,. + 0
 2048              		.type	bus_condvar, %object
 2049              		.size	bus_condvar, 8
 2050              	bus_condvar:
ARM GAS  /tmp/cc9rahCR.s 			page 37


 2051 0000 00000000 		.word	bus_condvar
 2052 0004 00000000 		.word	bus_condvar
 2053              		.section	.data.bus_lock,"aw",%progbits
 2054              		.align	2
 2055              		.set	.LANCHOR2,. + 0
 2056              		.type	bus_lock, %object
 2057              		.size	bus_lock, 20
 2058              	bus_lock:
 2059 0000 00000000 		.word	bus_lock
 2060 0004 00000000 		.word	bus_lock
 2061 0008 00000000 		.word	0
 2062 000c 00000000 		.word	0
 2063 0010 00000000 		.word	0
 2064              		.section	.rodata.__stack_chk_fail.str1.4,"aMS",%progbits,1
 2065              		.align	2
 2066              	.LC4:
 2067 0000 53746163 		.ascii	"Stack smashing detected\000"
 2067      6B20736D 
 2067      61736869 
 2067      6E672064 
 2067      65746563 
 2068              		.section	.rodata.main.str1.4,"aMS",%progbits,1
 2069              		.align	2
 2070              	.LC1:
 2071 0000 48656C6C 		.ascii	"Hello World\012\000"
 2071      6F20576F 
 2071      726C640A 
 2071      00
 2072 000d 000000   		.space	3
 2073              	.LC2:
 2074 0010 63616C69 		.ascii	"calibrated IR %d: %d\012\000"
 2074      62726174 
 2074      65642049 
 2074      52202564 
 2074      3A202564 
 2075 0026 0000     		.space	2
 2076              	.LC3:
 2077 0028 77616C6C 		.ascii	"wall condition: %d\012\000"
 2077      20636F6E 
 2077      64697469 
 2077      6F6E3A20 
 2077      25640A00 
 2078              		.section	.rodata.moving.str1.4,"aMS",%progbits,1
 2079              		.align	2
 2080              	.LC0:
 2081 0000 73706565 		.ascii	"speed over 1000\012\000"
 2081      64206F76 
 2081      65722031 
 2081      3030300A 
 2081      00
 2082              		.text
 2083              	.Letext0:
 2084              		.file 2 "/home/stonary/Documents/e_puck_F/Eclipse_e-puck2/Tools/gcc-arm-none-eabi-7-2017-q4-major/
 2085              		.file 3 "/home/stonary/Documents/e_puck_F/Eclipse_e-puck2/Tools/gcc-arm-none-eabi-7-2017-q4-major/
 2086              		.file 4 "/home/stonary/Documents/e_puck_F/Eclipse_e-puck2/Tools/gcc-arm-none-eabi-7-2017-q4-major/
 2087              		.file 5 "/home/stonary/Documents/e_puck_F/Eclipse_e-puck2/Tools/gcc-arm-none-eabi-7-2017-q4-major/
 2088              		.file 6 "/home/stonary/Documents/e_puck_F/Eclipse_e-puck2/Tools/gcc-arm-none-eabi-7-2017-q4-major/
ARM GAS  /tmp/cc9rahCR.s 			page 38


 2089              		.file 7 "/home/stonary/Documents/e_puck_F/Eclipse_e-puck2/Tools/gcc-arm-none-eabi-7-2017-q4-major/
 2090              		.file 8 "/home/stonary/Documents/e_puck_F/Eclipse_e-puck2/Tools/gcc-arm-none-eabi-7-2017-q4-major/
 2091              		.file 9 "/home/stonary/Documents/e_puck_F/Eclipse_e-puck2/Tools/gcc-arm-none-eabi-7-2017-q4-major/
 2092              		.file 10 "../e-puck2_main-processor/ChibiOS//os/rt/ports/ARMCMx/compilers/GCC/chtypes.h"
 2093              		.file 11 "../e-puck2_main-processor/ChibiOS//os/rt/include/chsystypes.h"
 2094              		.file 12 "../e-puck2_main-processor/ChibiOS//os/rt/include/chschd.h"
 2095              		.file 13 "../e-puck2_main-processor/ChibiOS//os/ext/CMSIS/include/core_cm4.h"
 2096              		.file 14 "../e-puck2_main-processor/ChibiOS//os/ext/CMSIS/ST/system_stm32f4xx.h"
 2097              		.file 15 "../e-puck2_main-processor/ChibiOS//os/ext/CMSIS/ST/stm32f407xx.h"
 2098              		.file 16 "../e-puck2_main-processor/ChibiOS//os/rt/ports/ARMCMx/chcore.h"
 2099              		.file 17 "../e-puck2_main-processor/ChibiOS//os/rt/ports/ARMCMx/chcore_v7m.h"
 2100              		.file 18 "../e-puck2_main-processor/ChibiOS//os/rt/include/chdebug.h"
 2101              		.file 19 "../e-puck2_main-processor/ChibiOS//os/rt/include/chtm.h"
 2102              		.file 20 "../e-puck2_main-processor/ChibiOS//os/rt/include/chstats.h"
 2103              		.file 21 "../e-puck2_main-processor/ChibiOS//os/rt/include/chsem.h"
 2104              		.file 22 "../e-puck2_main-processor/ChibiOS//os/rt/include/chmtx.h"
 2105              		.file 23 "../e-puck2_main-processor/ChibiOS//os/rt/include/chregistry.h"
 2106              		.file 24 "../e-puck2_main-processor/ChibiOS//os/rt/include/chcond.h"
 2107              		.file 25 "../e-puck2_main-processor/ChibiOS//os/rt/include/chevents.h"
 2108              		.file 26 "../e-puck2_main-processor/ChibiOS//os/rt/include/chqueues.h"
 2109              		.file 27 "../e-puck2_main-processor/ChibiOS//os/hal/ports/STM32/STM32F4xx/stm32_dma.h"
 2110              		.file 28 "../e-puck2_main-processor/ChibiOS//os/hal/include/hal_ioblock.h"
 2111              		.file 29 "../e-puck2_main-processor/ChibiOS//os/hal/ports/STM32/LLD/GPIOv2/pal_lld.h"
 2112              		.file 30 "../e-puck2_main-processor/ChibiOS//os/hal/include/adc.h"
 2113              		.file 31 "../e-puck2_main-processor/ChibiOS//os/hal/ports/STM32/STM32F4xx/adc_lld.h"
 2114              		.file 32 "../e-puck2_main-processor/ChibiOS//os/hal/include/can.h"
 2115              		.file 33 "../e-puck2_main-processor/ChibiOS//os/hal/ports/STM32/LLD/can_lld.h"
 2116              		.file 34 "../e-puck2_main-processor/ChibiOS//os/hal/include/dac.h"
 2117              		.file 35 "../e-puck2_main-processor/ChibiOS//os/hal/ports/STM32/LLD/DACv1/dac_lld.h"
 2118              		.file 36 "../e-puck2_main-processor/ChibiOS//os/hal/include/ext.h"
 2119              		.file 37 "../e-puck2_main-processor/ChibiOS//os/hal/ports/STM32/LLD/ext_lld.h"
 2120              		.file 38 "../e-puck2_main-processor/ChibiOS//os/hal/include/gpt.h"
 2121              		.file 39 "../e-puck2_main-processor/ChibiOS//os/hal/ports/STM32/LLD/TIMv1/gpt_lld.h"
 2122              		.file 40 "../e-puck2_main-processor/ChibiOS//os/hal/ports/STM32/LLD/TIMv1/stm32_tim.h"
 2123              		.file 41 "../e-puck2_main-processor/ChibiOS//os/hal/include/i2c.h"
 2124              		.file 42 "../e-puck2_main-processor/ChibiOS//os/hal/ports/STM32/LLD/I2Cv1/i2c_lld.h"
 2125              		.file 43 "../e-puck2_main-processor/ChibiOS//os/hal/include/i2s.h"
 2126              		.file 44 "../e-puck2_main-processor/ChibiOS//os/hal/ports/STM32/LLD/SPIv1/i2s_lld.h"
 2127              		.file 45 "../e-puck2_main-processor/ChibiOS//os/hal/include/pwm.h"
 2128              		.file 46 "../e-puck2_main-processor/ChibiOS//os/hal/ports/STM32/LLD/TIMv1/pwm_lld.h"
 2129              		.file 47 "../e-puck2_main-processor/ChibiOS//os/hal/include/serial.h"
 2130              		.file 48 "../e-puck2_main-processor/ChibiOS//os/hal/ports/STM32/LLD/USARTv1/serial_lld.h"
 2131              		.file 49 "../e-puck2_main-processor/ChibiOS//os/hal/include/sdc.h"
 2132              		.file 50 "../e-puck2_main-processor/ChibiOS//os/hal/ports/STM32/LLD/sdc_lld.h"
 2133              		.file 51 "../e-puck2_main-processor/ChibiOS//os/hal/include/spi.h"
 2134              		.file 52 "../e-puck2_main-processor/ChibiOS//os/hal/ports/STM32/LLD/SPIv1/spi_lld.h"
 2135              		.file 53 "../e-puck2_main-processor/ChibiOS//os/hal/include/usb.h"
 2136              		.file 54 "../e-puck2_main-processor/ChibiOS//os/hal/ports/STM32/LLD/OTGv1/usb_lld.h"
 2137              		.file 55 "../e-puck2_main-processor/ChibiOS//os/hal/ports/STM32/LLD/OTGv1/stm32_otg.h"
 2138              		.file 56 "/home/stonary/Documents/e_puck_F/Eclipse_e-puck2/Tools/gcc-arm-none-eabi-7-2017-q4-major
 2139              		.file 57 "../e-puck2_main-processor/src/msgbus/messagebus.h"
 2140              		.file 58 "../e-puck2_main-processor/src/parameter/parameter.h"
 2141              		.file 59 "./main.h"
 2142              		.file 60 "../e-puck2_main-processor/src/motors.h"
 2143              		.file 61 "../e-puck2_main-processor/ChibiOS//os/rt/include/chsys.h"
 2144              		.file 62 "../e-puck2_main-processor/ChibiOS//os/rt/include/chthreads.h"
 2145              		.file 63 "../e-puck2_main-processor/src/sensors/VL53L0X/VL53L0X.h"
ARM GAS  /tmp/cc9rahCR.s 			page 39


 2146              		.file 64 "/home/stonary/Documents/e_puck_F/Eclipse_e-puck2/Tools/gcc-arm-none-eabi-7-2017-q4-major
 2147              		.file 65 "../e-puck2_main-processor/src/epuck1x/uart/e_uart_char.h"
 2148              		.file 66 "../e-puck2_main-processor/src/sensors/proximity.h"
 2149              		.file 67 "../e-puck2_main-processor/ChibiOS//os/hal/include/hal.h"
 2150              		.file 68 "../e-puck2_main-processor/src/memory_protection.h"
 2151              		.file 69 "../e-puck2_main-processor/src/leds.h"
 2152              		.file 70 "../e-puck2_main-processor/src/spi_comm.h"
 2153              		.file 71 "../e-puck2_main-processor/src/serial_comm.h"
 2154              		.file 72 "../e-puck2_main-processor/src/selector.h"